 SapClassGui80D.NET_2010

 Timestamp is 56abf76e (Fri Jan 29 17:36:14 2016)

 Preferred load address is 67d80000

 Start         Length     Name                   Class
 0001:00000000 000330beH .text                   CODE
 0001:000330c0 00002eedH .text$x                 CODE
 0001:00035fb0 000006c8H .text$yc                CODE
 0001:00036680 00000071H .text$yd                CODE
 0002:00000000 00000c10H .idata$5                DATA
 0002:00000c10 00000004H .CRT$XCA                DATA
 0002:00000c14 0000000cH .CRT$XCC                DATA
 0002:00000c20 0000006cH .CRT$XCL                DATA
 0002:00000c8c 00000010H .CRT$XCU                DATA
 0002:00000c9c 00000004H .CRT$XCZ                DATA
 0002:00000ca0 00000004H .CRT$XIA                DATA
 0002:00000ca4 00000004H .CRT$XIAA               DATA
 0002:00000ca8 00000004H .CRT$XIC                DATA
 0002:00000cac 00000004H .CRT$XIZ                DATA
 0002:00000cb0 00008f68H .rdata                  DATA
 0002:00009c18 0000006eH .rdata$debug            DATA
 0002:00009c88 00000e48H .rdata$r                DATA
 0002:0000aad0 0000021cH .rdata$sxdata           DATA
 0002:0000acec 00000004H .rtc$IAA                DATA
 0002:0000acf0 00000078H .rtc$IMZ                DATA
 0002:0000ad68 00000004H .rtc$IZZ                DATA
 0002:0000ad6c 00000004H .rtc$TAA                DATA
 0002:0000ad70 00000078H .rtc$TMZ                DATA
 0002:0000ade8 00000004H .rtc$TZZ                DATA
 0002:0000adf0 00002284H .xdata$x                DATA
 0002:0000d074 00000004H ATL$__a                 DATA
 0002:0000d078 00000004H ATL$__z                 DATA
 0002:0000d07c 000000b4H .idata$2                DATA
 0002:0000d130 00000014H .idata$3                DATA
 0002:0000d144 00000c10H .idata$4                DATA
 0002:0000dd54 00003cceH .idata$6                DATA
 0002:00011a30 00005ed5H .edata                  DATA
 0003:00000000 00000dc8H .data                   DATA
 0003:00000dc8 000004c4H .bss                    DATA
 0004:00000000 000008b0H .rsrc$01                DATA
 0004:000008b0 00019488H .rsrc$02                DATA

  Address         Publics by Value              Rva+Base       Lib:Object

 0000:00000000       __except_list              00000000     <absolute>
 0000:00000087       ___safe_se_handler_count   00000087     <absolute>
 0000:00009876       __fltused                  00009876     <absolute>
 0000:00009876       __ldused                   00009876     <absolute>
 0000:00000000       ___ImageBase               67d80000     <linker-defined>
 0001:00000000       ??0CAbortDlg@@QAE@PAVCWnd@@PAVSapTransfer@@H@Z 67d81000 f   AbortDlg.obj
 0001:00000070       ?DoDataExchange@CAbortDlg@@MAEXPAVCDataExchange@@@Z 67d81070 f   AbortDlg.obj
 0001:000000a0       ?GetMessageMap@CAbortDlg@@MBEPBUAFX_MSGMAP@@XZ 67d810a0 f   AbortDlg.obj
 0001:000000d0       ?GetThisMessageMap@CAbortDlg@@KGPBUAFX_MSGMAP@@XZ 67d810d0 f   AbortDlg.obj
 0001:000000e0       ?OnInitDialog@CAbortDlg@@MAEHXZ 67d810e0 f   AbortDlg.obj
 0001:000001c0       ?OnAbort@CAbortDlg@@IAEXXZ 67d811c0 f   AbortDlg.obj
 0001:000001f0       ?OnTimer@CAbortDlg@@IAEXI@Z 67d811f0 f   AbortDlg.obj
 0001:000002d0       ??_GCAbortDlg@@UAEPAXI@Z   67d812d0 f i AbortDlg.obj
 0001:00000310       ??1CAbortDlg@@UAE@XZ       67d81310 f i AbortDlg.obj
 0001:00000340       ??_ECAbortDlg@@UAEPAXI@Z   67d81340 f i AbortDlg.obj
 0001:000003c0       ??0CAcqConfigDlg@@QAE@PAVCWnd@@W4ServerCategory@0@@Z 67d813c0 f   AcqConfigDlg.obj
 0001:00000570       ??0CAcqConfigDlg@@QAE@PAVCWnd@@VSapLocation@@PBDW4ServerCategory@0@@Z 67d81570 f   AcqConfigDlg.obj
 0001:00000830       ??0CAcqConfigDlg@@QAE@PAVCWnd@@PAVSapAcquisition@@PBD@Z 67d81830 f   AcqConfigDlg.obj
 0001:00000b90       ?GetLocation@CAcqConfigDlg@@QAE?AVSapLocation@@XZ 67d81b90 f   AcqConfigDlg.obj
 0001:00000c80       ?UpdateAcquisition@CAcqConfigDlg@@IAEHXZ 67d81c80 f   AcqConfigDlg.obj
 0001:00000e40       ?LoadSettings@CAcqConfigDlg@@IAEXXZ 67d81e40 f   AcqConfigDlg.obj
 0001:000011b0       ?SaveSettings@CAcqConfigDlg@@IAEXXZ 67d821b0 f   AcqConfigDlg.obj
 0001:000013b0       ?DoDataExchange@CAcqConfigDlg@@MAEXPAVCDataExchange@@@Z 67d823b0 f   AcqConfigDlg.obj
 0001:00001470       ?GetMessageMap@CAcqConfigDlg@@MBEPBUAFX_MSGMAP@@XZ 67d82470 f   AcqConfigDlg.obj
 0001:000014a0       ?GetThisMessageMap@CAcqConfigDlg@@KGPBUAFX_MSGMAP@@XZ 67d824a0 f   AcqConfigDlg.obj
 0001:000014b0       ?OnInitDialog@CAcqConfigDlg@@MAEHXZ 67d824b0 f   AcqConfigDlg.obj
 0001:000015e0       ?InitServerCombo@CAcqConfigDlg@@IAEXXZ 67d825e0 f   AcqConfigDlg.obj
 0001:00001970       ?InitResourceCombo@CAcqConfigDlg@@IAEXXZ 67d82970 f   AcqConfigDlg.obj
 0001:00001f50       ?OnConfigBrowse@CAcqConfigDlg@@IAEXXZ 67d82f50 f   AcqConfigDlg.obj
 0001:000021c0       ?SplitConfigFilePath@CAcqConfigDlg@@IAEXXZ 67d831c0 f   AcqConfigDlg.obj
 0001:00002350       ?UpdateDescription@CAcqConfigDlg@@IAEXXZ 67d83350 f   AcqConfigDlg.obj
 0001:00002880       ?UpdateMenu@CAcqConfigDlg@@IAEXXZ 67d83880 f   AcqConfigDlg.obj
 0001:000029b0       ?ValidateCCFAgainstServerName@CAcqConfigDlg@@IAE_N_N@Z 67d839b0 f   AcqConfigDlg.obj
 0001:00002c60       ?OnOK@CAcqConfigDlg@@MAEXXZ 67d83c60 f   AcqConfigDlg.obj
 0001:00002d90       ?OnSelchangeComboServer@CAcqConfigDlg@@IAEXXZ 67d83d90 f   AcqConfigDlg.obj
 0001:00002dd0       ?OnSelchangeComboResource@CAcqConfigDlg@@IAEXXZ 67d83dd0 f   AcqConfigDlg.obj
 0001:00002e00       ?OnBnClickedConfigFileCheck@CAcqConfigDlg@@IAEXXZ 67d83e00 f   AcqConfigDlg.obj
 0001:00002e30       ?GetConfigFile@CAcqConfigDlg@@QAEPADXZ 67d83e30 f   AcqConfigDlg.obj
 0001:000030e0       ?strstr@@YAPADPADPBD@Z     67d840e0 f i AcqConfigDlg.obj
 0001:00003110       ?strrchr@@YAPADPADH@Z      67d84110 f i AcqConfigDlg.obj
 0001:00003140       ??HATL@@YA?AV?$CStringT@DV?$StrTraitMFC_DLL@DV?$ChTraitsCRT@D@ATL@@@@@0@ABV10@0@Z 67d84140 f i AcqConfigDlg.obj
 0001:000032a0       ??_ECAcqConfigDlg@@WJE@AEPAXI@Z 67d842a0 f i AcqConfigDlg.obj
 0001:000032b0       ?StringCbCopyA@@YGJPADIPBD@Z 67d842b0 f i AcqConfigDlg.obj
 0001:00003320       ?StringCbPrintfA@@YAJPADIPBDZZ 67d84320 f i AcqConfigDlg.obj
 0001:000033a0       ??_GCAcqConfigDlg@@UAEPAXI@Z 67d843a0 f i AcqConfigDlg.obj
 0001:000033e0       ??1CAcqConfigDlg@@UAE@XZ   67d843e0 f i AcqConfigDlg.obj
 0001:00003510       ??_ECAcqConfigDlg@@UAEPAXI@Z 67d84510 f i AcqConfigDlg.obj
 0001:00003590       ??0CAcqDlg@@QAE@PAVCWnd@@PAVSapAcquisition@@@Z 67d84590 f   AcqDlg.obj
 0001:00003650       ?DoDataExchange@CAcqDlg@@MAEXPAVCDataExchange@@@Z 67d84650 f   AcqDlg.obj
 0001:000036b0       ?GetMessageMap@CAcqDlg@@MBEPBUAFX_MSGMAP@@XZ 67d846b0 f   AcqDlg.obj
 0001:000036e0       ?GetThisMessageMap@CAcqDlg@@KGPBUAFX_MSGMAP@@XZ 67d846e0 f   AcqDlg.obj
 0001:000036f0       ?OnOK@CAcqDlg@@MAEXXZ      67d846f0 f   AcqDlg.obj
 0001:00003960       ?OnInitDialog@CAcqDlg@@MAEHXZ 67d84960 f   AcqDlg.obj
 0001:00004290       ?UpdateWindow@CAcqDlg@@IAEXXZ 67d85290 f   AcqDlg.obj
 0001:000043c0       ?OnExternalTriggerEnable@CAcqDlg@@IAEXXZ 67d853c0 f   AcqDlg.obj
 0001:000044f0       ??_ECAcqDlg@@WJE@AEPAXI@Z  67d854f0 f i AcqDlg.obj
 0001:00004500       ??_GCAcqDlg@@UAEPAXI@Z     67d85500 f i AcqDlg.obj
 0001:00004540       ??1CAcqDlg@@UAE@XZ         67d85540 f i AcqDlg.obj
 0001:000045c0       ??_ECAcqDlg@@UAEPAXI@Z     67d855c0 f i AcqDlg.obj
 0001:00004640       ??0CAScanDlg@@QAE@PAVCWnd@@PAVSapAcquisition@@@Z 67d85640 f   AScanDlg.obj
 0001:00004730       ?DoDataExchange@CAScanDlg@@MAEXPAVCDataExchange@@@Z 67d85730 f   AScanDlg.obj
 0001:000047c0       ?GetMessageMap@CAScanDlg@@MBEPBUAFX_MSGMAP@@XZ 67d857c0 f   AScanDlg.obj
 0001:000047f0       ?GetThisMessageMap@CAScanDlg@@KGPBUAFX_MSGMAP@@XZ 67d857f0 f   AScanDlg.obj
 0001:00004800       ?OnOK@CAScanDlg@@MAEXXZ    67d85800 f   AScanDlg.obj
 0001:00004c80       ?OnInitDialog@CAScanDlg@@MAEHXZ 67d85c80 f   AScanDlg.obj
 0001:00005660       ?UpdateWindow@CAScanDlg@@IAEXXZ 67d86660 f   AScanDlg.obj
 0001:000057b0       ?OnCamTriggerEnable@CAScanDlg@@IAEXXZ 67d867b0 f   AScanDlg.obj
 0001:000057e0       ?OnCamResetEnable@CAScanDlg@@IAEXXZ 67d867e0 f   AScanDlg.obj
 0001:00005810       ?OnTimeIntegrate@CAScanDlg@@IAEXXZ 67d86810 f   AScanDlg.obj
 0001:00005840       ?OnKillfocusEditTime@CAScanDlg@@IAEXXZ 67d86840 f   AScanDlg.obj
 0001:00005880       ?OnFrameIntegrate@CAScanDlg@@IAEXXZ 67d86880 f   AScanDlg.obj
 0001:000058b0       ?OnKillfocusEditFrame@CAScanDlg@@IAEXXZ 67d868b0 f   AScanDlg.obj
 0001:000058f0       ?OnVScroll@CAScanDlg@@IAEXIIPAVCScrollBar@@@Z 67d868f0 f   AScanDlg.obj
 0001:00005a20       ?VerifyTimeIntegrateDuration@CAScanDlg@@IAEXH@Z 67d86a20 f   AScanDlg.obj
 0001:00005c30       ?VerifyFrameIntegrateCount@CAScanDlg@@IAEXXZ 67d86c30 f   AScanDlg.obj
 0001:00005ec0       ??_ECAScanDlg@@WJE@AEPAXI@Z 67d86ec0 f i AScanDlg.obj
 0001:00005ed0       ??_GCAScanDlg@@UAEPAXI@Z   67d86ed0 f i AScanDlg.obj
 0001:00005f10       ??1CAScanDlg@@UAE@XZ       67d86f10 f i AScanDlg.obj
 0001:00005fb0       ??_ECAScanDlg@@UAEPAXI@Z   67d86fb0 f i AScanDlg.obj
 0001:00006030       ??0CAviFileDlg@@QAE@PAVCWnd@@HHHH@Z 67d87030 f   AviFileDlg.obj
 0001:00006180       ?DoDataExchange@CAviFileDlg@@MAEXPAVCDataExchange@@@Z 67d87180 f   AviFileDlg.obj
 0001:00006210       ?GetMessageMap@CAviFileDlg@@MBEPBUAFX_MSGMAP@@XZ 67d87210 f   AviFileDlg.obj
 0001:00006240       ?GetThisMessageMap@CAviFileDlg@@KGPBUAFX_MSGMAP@@XZ 67d87240 f   AviFileDlg.obj
 0001:00006250       ?OnVScroll@CAviFileDlg@@IAEXIIPAVCScrollBar@@@Z 67d87250 f   AviFileDlg.obj
 0001:00006370       ?OnUpdateAviEditFirstFrame@CAviFileDlg@@IAEXXZ 67d87370 f   AviFileDlg.obj
 0001:000063a0       ?OnUpdateAviEditCompressionLevel@CAviFileDlg@@IAEXXZ 67d873a0 f   AviFileDlg.obj
 0001:000063d0       ?OnInitDialog@CAviFileDlg@@MAEHXZ 67d873d0 f   AviFileDlg.obj
 0001:000064b0       ?OnOK@CAviFileDlg@@MAEXXZ  67d874b0 f   AviFileDlg.obj
 0001:00006590       ??_ECAviFileDlg@@UAEPAXI@Z 67d87590 f i AviFileDlg.obj
 0001:00006590       ??_GCAviFileDlg@@UAEPAXI@Z 67d87590 f i AviFileDlg.obj
 0001:000065d0       ??1CAviFileDlg@@UAE@XZ     67d875d0 f i AviFileDlg.obj
 0001:00006600       ??0CBayerOptionsDlg@@QAE@PAVCWnd@@PAVSapBayer@@PAVSapTransfer@@PAVCImageWnd@@PAVSapProcessing@@@Z 67d87600 f   BayerDlg.obj
 0001:00006710       ??1CBayerOptionsDlg@@UAE@XZ 67d87710 f   BayerDlg.obj
 0001:000067a0       ?DoDataExchange@CBayerOptionsDlg@@MAEXPAVCDataExchange@@@Z 67d877a0 f   BayerDlg.obj
 0001:00006870       ?GetMessageMap@CBayerOptionsDlg@@MBEPBUAFX_MSGMAP@@XZ 67d87870 f   BayerDlg.obj
 0001:000068a0       ?GetThisMessageMap@CBayerOptionsDlg@@KGPBUAFX_MSGMAP@@XZ 67d878a0 f   BayerDlg.obj
 0001:000068b0       ?OnInitDialog@CBayerOptionsDlg@@MAEHXZ 67d878b0 f   BayerDlg.obj
 0001:00006910       ?UpdateInterface@CBayerOptionsDlg@@QAEXXZ 67d87910 f   BayerDlg.obj
 0001:00006d20       ?OnChange@CBayerOptionsDlg@@IAEXXZ 67d87d20 f   BayerDlg.obj
 0001:00006d60       ?OnGammaEnable@CBayerOptionsDlg@@IAEXXZ 67d87d60 f   BayerDlg.obj
 0001:00006e00       ?OnChangeRange@CBayerOptionsDlg@@IAEXI@Z 67d87e00 f   BayerDlg.obj
 0001:00006e30       ?OnAutoWhiteBalance@CBayerOptionsDlg@@IAEXXZ 67d87e30 f   BayerDlg.obj
 0001:00006fb0       ?OnApply@CBayerOptionsDlg@@IAEXXZ 67d87fb0 f   BayerDlg.obj
 0001:00007230       ?OnShowWindow@CBayerOptionsDlg@@IAEXHI@Z 67d88230 f   BayerDlg.obj
 0001:000072a0       ?UpdateView@CBayerOptionsDlg@@IAEXXZ 67d882a0 f   BayerDlg.obj
 0001:00007400       ?OnClose@CBayerOptionsDlg@@IAEXXZ 67d88400 f   BayerDlg.obj
 0001:00007460       ??_ECBayerOptionsDlg@@WJE@AEPAXI@Z 67d88460 f i BayerDlg.obj
 0001:00007470       ?IsRoiTrackerActive@CImageWnd@@QAEHXZ 67d88470 f i BayerDlg.obj
 0001:00007490       ??_GCBayerOptionsDlg@@UAEPAXI@Z 67d88490 f i BayerDlg.obj
 0001:000074d0       ??_ECBayerOptionsDlg@@UAEPAXI@Z 67d884d0 f i BayerDlg.obj
 0001:00007550       ??0CBrowseDirDlg@@QAE@PBD@Z 67d88550 f   BrowseDirDlg.obj
 0001:000075e0       ?DoModal@CBrowseDirDlg@@QAEHXZ 67d885e0 f   BrowseDirDlg.obj
 0001:00007a90       ?BrowseHookProc@CBrowseDirDlg@@KGIPAUHWND__@@IIJ@Z 67d88a90 f   BrowseDirDlg.obj
 0001:00007bd0       ??HATL@@YA?AV?$CStringT@DV?$StrTraitMFC_DLL@DV?$ChTraitsCRT@D@ATL@@@@@0@ABV10@D@Z 67d88bd0 f i BrowseDirDlg.obj
 0001:00007d30       ??0CBufDlg@@QAE@PAVCWnd@@PAVSapBuffer@@PAVSapDisplay@@@Z 67d88d30 f   BufDlg.obj
 0001:00008080       ?UpdateBuffer@CBufDlg@@IAEHXZ 67d89080 f   BufDlg.obj
 0001:00008210       ?DoDataExchange@CBufDlg@@MAEXPAVCDataExchange@@@Z 67d89210 f   BufDlg.obj
 0001:000082d0       ?GetMessageMap@CBufDlg@@MBEPBUAFX_MSGMAP@@XZ 67d892d0 f   BufDlg.obj
 0001:00008300       ?GetThisMessageMap@CBufDlg@@KGPBUAFX_MSGMAP@@XZ 67d89300 f   BufDlg.obj
 0001:00008310       ?OnInitDialog@CBufDlg@@MAEHXZ 67d89310 f   BufDlg.obj
 0001:00008450       ?OnSelchangeComboFormat@CBufDlg@@IAEXXZ 67d89450 f   BufDlg.obj
 0001:000084f0       ?OnOK@CBufDlg@@MAEXXZ      67d894f0 f   BufDlg.obj
 0001:00008530       ?EnableControls@CBufDlg@@IAEXXZ 67d89530 f   BufDlg.obj
 0001:00008630       ??_GCBufDlg@@UAEPAXI@Z     67d89630 f i BufDlg.obj
 0001:00008670       ??1CBufDlg@@UAE@XZ         67d89670 f i BufDlg.obj
 0001:00008720       ??_ECBufDlg@@UAEPAXI@Z     67d89720 f i BufDlg.obj
 0001:000087a0       ??0CCabDlg@@QAE@PAVCWnd@@PAVSapCab@@PAVSapXferNode@@H@Z 67d897a0 f   CabDlg.obj
 0001:00008a20       ??1CCabDlg@@UAE@XZ         67d89a20 f   CabDlg.obj
 0001:00008b30       ?DoDataExchange@CCabDlg@@MAEXPAVCDataExchange@@@Z 67d89b30 f   CabDlg.obj
 0001:00008bd0       ?GetMessageMap@CCabDlg@@MBEPBUAFX_MSGMAP@@XZ 67d89bd0 f   CabDlg.obj
 0001:00008c00       ?GetThisMessageMap@CCabDlg@@KGPBUAFX_MSGMAP@@XZ 67d89c00 f   CabDlg.obj
 0001:00008c10       ?EnableControls@CCabDlg@@QAEXXZ 67d89c10 f   CabDlg.obj
 0001:000090a0       ?OnInitDialog@CCabDlg@@MAEHXZ 67d8a0a0 f   CabDlg.obj
 0001:00009800       ?OnOK@CCabDlg@@MAEXXZ      67d8a800 f   CabDlg.obj
 0001:00009b90       ?OnCabTransmitter@CCabDlg@@IAEXXZ 67d8ab90 f   CabDlg.obj
 0001:00009bd0       ?OnCabReceiver@CCabDlg@@IAEXXZ 67d8abd0 f   CabDlg.obj
 0001:00009c10       ?OnSelchangeCabTransferMode@CCabDlg@@IAEXXZ 67d8ac10 f   CabDlg.obj
 0001:00009c40       ?OnSelchangeCabChannelTable@CCabDlg@@IAEXPAUtagNMHDR@@PAJ@Z 67d8ac40 f   CabDlg.obj
 0001:00009ca0       ?OnCabChannel0@CCabDlg@@IAEXXZ 67d8aca0 f   CabDlg.obj
 0001:00009cd0       ?OnCabChannel1@CCabDlg@@IAEXXZ 67d8acd0 f   CabDlg.obj
 0001:00009d00       ?OnCabChannel2@CCabDlg@@IAEXXZ 67d8ad00 f   CabDlg.obj
 0001:00009d30       ?OnCabChannel3@CCabDlg@@IAEXXZ 67d8ad30 f   CabDlg.obj
 0001:00009d60       ?OnCabChannel4@CCabDlg@@IAEXXZ 67d8ad60 f   CabDlg.obj
 0001:00009d90       ?OnCabChannel5@CCabDlg@@IAEXXZ 67d8ad90 f   CabDlg.obj
 0001:00009dc0       ?OnCabChannel6@CCabDlg@@IAEXXZ 67d8adc0 f   CabDlg.obj
 0001:00009df0       ?OnCabChannel7@CCabDlg@@IAEXXZ 67d8adf0 f   CabDlg.obj
 0001:00009e20       ?OnCabChannel8@CCabDlg@@IAEXXZ 67d8ae20 f   CabDlg.obj
 0001:00009e50       ?OnCabChannel9@CCabDlg@@IAEXXZ 67d8ae50 f   CabDlg.obj
 0001:00009e80       ?OnCabChannel10@CCabDlg@@IAEXXZ 67d8ae80 f   CabDlg.obj
 0001:00009eb0       ?OnCabChannel11@CCabDlg@@IAEXXZ 67d8aeb0 f   CabDlg.obj
 0001:00009ee0       ?OnCabChannel12@CCabDlg@@IAEXXZ 67d8aee0 f   CabDlg.obj
 0001:00009f10       ?OnCabChannel13@CCabDlg@@IAEXXZ 67d8af10 f   CabDlg.obj
 0001:00009f40       ?OnCabChannel14@CCabDlg@@IAEXXZ 67d8af40 f   CabDlg.obj
 0001:00009f70       ?OnCabChannel15@CCabDlg@@IAEXXZ 67d8af70 f   CabDlg.obj
 0001:00009fa0       ?ToggleCabChannel@CCabDlg@@IAEXH@Z 67d8afa0 f   CabDlg.obj
 0001:0000a000       ?DestroyWindow@CCabDlg@@UAEHXZ 67d8b000 f   CabDlg.obj
 0001:0000a070       ??_ESapCab@@UAEPAXI@Z      67d8b070 f i CabDlg.obj
 0001:0000a070       ??_GSapCab@@UAEPAXI@Z      67d8b070 f i CabDlg.obj
 0001:0000a0c0       ??_ECCabDlg@@WJE@AEPAXI@Z  67d8b0c0 f i CabDlg.obj
 0001:0000a0d0       ??_GCCabDlg@@UAEPAXI@Z     67d8b0d0 f i CabDlg.obj
 0001:0000a110       ??_ECCabDlg@@UAEPAXI@Z     67d8b110 f i CabDlg.obj
 0001:0000a190       ??0CCamVicDlg@@QAE@PAVCWnd@@PAVSapAcquisition@@PBD@Z 67d8b190 f   CamVicDlg.obj
 0001:0000a580       ?UpdateAcquisition@CCamVicDlg@@IAEHXZ 67d8b580 f   CamVicDlg.obj
 0001:0000a7b0       ?LoadSettings@CCamVicDlg@@IAEXXZ 67d8b7b0 f   CamVicDlg.obj
 0001:0000aa50       ?SaveSettings@CCamVicDlg@@IAEXXZ 67d8ba50 f   CamVicDlg.obj
 0001:0000ab70       ?SetDirectories@CCamVicDlg@@IAEXXZ 67d8bb70 f   CamVicDlg.obj
 0001:0000b180       ?DoDataExchange@CCamVicDlg@@MAEXPAVCDataExchange@@@Z 67d8c180 f   CamVicDlg.obj
 0001:0000b270       ?GetMessageMap@CCamVicDlg@@MBEPBUAFX_MSGMAP@@XZ 67d8c270 f   CamVicDlg.obj
 0001:0000b2a0       ?GetThisMessageMap@CCamVicDlg@@KGPBUAFX_MSGMAP@@XZ 67d8c2a0 f   CamVicDlg.obj
 0001:0000b2b0       ?OnInitDialog@CCamVicDlg@@MAEHXZ 67d8c2b0 f   CamVicDlg.obj
 0001:0000b330       ?InitServerCombo@CCamVicDlg@@IAEXXZ 67d8c330 f   CamVicDlg.obj
 0001:0000b540       ?InitResourceCombo@CCamVicDlg@@IAEXXZ 67d8c540 f   CamVicDlg.obj
 0001:0000b7f0       ?OnCamBrowse@CCamVicDlg@@IAEXXZ 67d8c7f0 f   CamVicDlg.obj
 0001:0000b940       ?OnVicBrowse@CCamVicDlg@@IAEXXZ 67d8c940 f   CamVicDlg.obj
 0001:0000ba90       ?OnKillfocusEditCamPath@CCamVicDlg@@IAEXXZ 67d8ca90 f   CamVicDlg.obj
 0001:0000bb40       ?OnKillfocusEditVicPath@CCamVicDlg@@IAEXXZ 67d8cb40 f   CamVicDlg.obj
 0001:0000bbf0       ?UpdateCurrentDir@CCamVicDlg@@IAEXPADH@Z 67d8cbf0 f   CamVicDlg.obj
 0001:0000bd00       ?UpdateNames@CCamVicDlg@@IAEXH@Z 67d8cd00 f   CamVicDlg.obj
 0001:0000c480       ?UpdateBoxAvailability@CCamVicDlg@@IAEXXZ 67d8d480 f   CamVicDlg.obj
 0001:0000c540       ?OnSelchangeComboCamera@CCamVicDlg@@IAEXXZ 67d8d540 f   CamVicDlg.obj
 0001:0000c5d0       ?OnSelchangeComboVic@CCamVicDlg@@IAEXXZ 67d8d5d0 f   CamVicDlg.obj
 0001:0000c660       ?MakeVicAvailable@CCamVicDlg@@IAEHXZ 67d8d660 f   CamVicDlg.obj
 0001:0000c890       ?OnGenerateVic@CCamVicDlg@@IAEXXZ 67d8d890 f   CamVicDlg.obj
 0001:0000cfd0       ?OnOK@CCamVicDlg@@MAEXXZ   67d8dfd0 f   CamVicDlg.obj
 0001:0000d070       ?OnSelchangeComboServer@CCamVicDlg@@IAEXXZ 67d8e070 f   CamVicDlg.obj
 0001:0000d0b0       ?OnSelchangeComboResource@CCamVicDlg@@IAEXXZ 67d8e0b0 f   CamVicDlg.obj
 0001:0000d370       ?GetDir@CBrowseDirDlg@@QAE?AV?$CStringT@DV?$StrTraitMFC_DLL@DV?$ChTraitsCRT@D@ATL@@@@@ATL@@XZ 67d8e370 f i CamVicDlg.obj
 0001:0000d3d0       ??1CBrowseDirDlg@@QAE@XZ   67d8e3d0 f i CamVicDlg.obj
 0001:0000d400       ??HATL@@YA?AV?$CStringT@DV?$StrTraitMFC_DLL@DV?$ChTraitsCRT@D@ATL@@@@@0@ABV10@PBD@Z 67d8e400 f i CamVicDlg.obj
 0001:0000d550       ??_ECCamVicDlg@@WJE@AEPAXI@Z 67d8e550 f i CamVicDlg.obj
 0001:0000d560       ?StringCbCatA@@YGJPADIPBD@Z 67d8e560 f i CamVicDlg.obj
 0001:0000d610       ??_GCCamVicDlg@@UAEPAXI@Z  67d8e610 f i CamVicDlg.obj
 0001:0000d650       ??1CCamVicDlg@@UAE@XZ      67d8e650 f i CamVicDlg.obj
 0001:0000d790       ??_ECCamVicDlg@@UAEPAXI@Z  67d8e790 f i CamVicDlg.obj
 0001:0000d810       ??0CColorConversionOptionsDlg@@QAE@PAVCWnd@@PAVSapColorConversion@@PAVSapTransfer@@PAVCImageWnd@@PAVSapProcessing@@@Z 67d8e810 f   ColorConversionDlg.obj
 0001:0000d930       ??1CColorConversionOptionsDlg@@UAE@XZ 67d8e930 f   ColorConversionDlg.obj
 0001:0000d9e0       ?DoDataExchange@CColorConversionOptionsDlg@@MAEXPAVCDataExchange@@@Z 67d8e9e0 f   ColorConversionDlg.obj
 0001:0000dad0       ?GetMessageMap@CColorConversionOptionsDlg@@MBEPBUAFX_MSGMAP@@XZ 67d8ead0 f   ColorConversionDlg.obj
 0001:0000db00       ?GetThisMessageMap@CColorConversionOptionsDlg@@KGPBUAFX_MSGMAP@@XZ 67d8eb00 f   ColorConversionDlg.obj
 0001:0000db10       ?OnInitDialog@CColorConversionOptionsDlg@@MAEHXZ 67d8eb10 f   ColorConversionDlg.obj
 0001:0000db70       ?UpdateInterface@CColorConversionOptionsDlg@@QAEXXZ 67d8eb70 f   ColorConversionDlg.obj
 0001:0000e000       ?OnChange@CColorConversionOptionsDlg@@IAEXXZ 67d8f000 f   ColorConversionDlg.obj
 0001:0000e050       ?OnChangeNumber@CColorConversionOptionsDlg@@IAEXXZ 67d8f050 f   ColorConversionDlg.obj
 0001:0000e090       ?SetSelectedMethodDescription@CColorConversionOptionsDlg@@IAEXXZ 67d8f090 f   ColorConversionDlg.obj
 0001:0000e160       ?OnGammaEnable@CColorConversionOptionsDlg@@IAEXXZ 67d8f160 f   ColorConversionDlg.obj
 0001:0000e200       ?OnChangeRange@CColorConversionOptionsDlg@@IAEXI@Z 67d8f200 f   ColorConversionDlg.obj
 0001:0000e230       ?OnAutoWhiteBalance@CColorConversionOptionsDlg@@IAEXXZ 67d8f230 f   ColorConversionDlg.obj
 0001:0000e360       ?OnApply@CColorConversionOptionsDlg@@IAEXXZ 67d8f360 f   ColorConversionDlg.obj
 0001:0000e640       ?OnShowWindow@CColorConversionOptionsDlg@@IAEXHI@Z 67d8f640 f   ColorConversionDlg.obj
 0001:0000e6b0       ?UpdateView@CColorConversionOptionsDlg@@IAEXXZ 67d8f6b0 f   ColorConversionDlg.obj
 0001:0000e810       ?OnClose@CColorConversionOptionsDlg@@IAEXXZ 67d8f810 f   ColorConversionDlg.obj
 0001:0000e870       ??_ECColorConversionOptionsDlg@@WJE@AEPAXI@Z 67d8f870 f i ColorConversionDlg.obj
 0001:0000e880       ??_GCColorConversionOptionsDlg@@UAEPAXI@Z 67d8f880 f i ColorConversionDlg.obj
 0001:0000e8c0       ??_ECColorConversionOptionsDlg@@UAEPAXI@Z 67d8f8c0 f i ColorConversionDlg.obj
 0001:0000e940       ??1SapColorConversionMethodDictionary@@QAE@XZ 67d8f940 f i ColorConversionDlg.obj
 0001:0000e980       ??0CCompDlg@@QAE@PAVCWnd@@PAVSapAcquisition@@PAVSapTransfer@@@Z 67d8f980 f   CompDlg.obj
 0001:0000ead0       ?DoDataExchange@CCompDlg@@MAEXPAVCDataExchange@@@Z 67d8fad0 f   CompDlg.obj
 0001:0000ebf0       ?GetMessageMap@CCompDlg@@MBEPBUAFX_MSGMAP@@XZ 67d8fbf0 f   CompDlg.obj
 0001:0000ec20       ?GetThisMessageMap@CCompDlg@@KGPBUAFX_MSGMAP@@XZ 67d8fc20 f   CompDlg.obj
 0001:0000ec30       ?Snap@CCompDlg@@IAEXXZ     67d8fc30 f   CompDlg.obj
 0001:0000edb0       ?OnOK@CCompDlg@@MAEXXZ     67d8fdb0 f   CompDlg.obj
 0001:0000ede0       ?OnCancel@CCompDlg@@MAEXXZ 67d8fde0 f   CompDlg.obj
 0001:0000ef70       ?OnInitDialog@CCompDlg@@MAEHXZ 67d8ff70 f   CompDlg.obj
 0001:00010040       ?UpdateWindow@CCompDlg@@IAEXXZ 67d91040 f   CompDlg.obj
 0001:000101e0       ?SetBrightness@CCompDlg@@IAEXXZ 67d911e0 f   CompDlg.obj
 0001:000102d0       ?SetContrast@CCompDlg@@IAEXXZ 67d912d0 f   CompDlg.obj
 0001:000103c0       ?SetHue@CCompDlg@@IAEXXZ   67d913c0 f   CompDlg.obj
 0001:00010480       ?SetSaturation@CCompDlg@@IAEXXZ 67d91480 f   CompDlg.obj
 0001:00010540       ?SetSharpness@CCompDlg@@IAEXXZ 67d91540 f   CompDlg.obj
 0001:00010600       ?OnHScroll@CCompDlg@@IAEXIIPAVCScrollBar@@@Z 67d91600 f   CompDlg.obj
 0001:000109f0       ?OnRed@CCompDlg@@IAEXXZ    67d919f0 f   CompDlg.obj
 0001:00010a60       ?OnGreen@CCompDlg@@IAEXXZ  67d91a60 f   CompDlg.obj
 0001:00010ad0       ?OnBlue@CCompDlg@@IAEXXZ   67d91ad0 f   CompDlg.obj
 0001:00010b40       ?OnKillfocusEditContrast@CCompDlg@@IAEXXZ 67d91b40 f   CompDlg.obj
 0001:00010b90       ?OnKillfocusEditBrightness@CCompDlg@@IAEXXZ 67d91b90 f   CompDlg.obj
 0001:00010be0       ?OnKillfocusEditHue@CCompDlg@@IAEXXZ 67d91be0 f   CompDlg.obj
 0001:00010c30       ?OnKillfocusEditSaturation@CCompDlg@@IAEXXZ 67d91c30 f   CompDlg.obj
 0001:00010c80       ?OnKillfocusEditSharpness@CCompDlg@@IAEXXZ 67d91c80 f   CompDlg.obj
 0001:00010cd0       ?OnDefault@CCompDlg@@IAEXXZ 67d91cd0 f   CompDlg.obj
 0001:00010e60       ??_ECCompDlg@@WJE@AEPAXI@Z 67d91e60 f i CompDlg.obj
 0001:00010e70       ??_GCCompDlg@@UAEPAXI@Z    67d91e70 f i CompDlg.obj
 0001:00010eb0       ??1CCompDlg@@UAE@XZ        67d91eb0 f i CompDlg.obj
 0001:00010f80       ??_ECCompDlg@@UAEPAXI@Z    67d91f80 f i CompDlg.obj
 0001:00011000       ??0CFlatFieldDlg@@QAE@PAVCWnd@@PAVSapFlatField@@PAVSapTransfer@@PAVSapBuffer@@@Z 67d92000 f   FlatFieldDlg.obj
 0001:00011200       ??1CFlatFieldDlg@@UAE@XZ   67d92200 f   FlatFieldDlg.obj
 0001:00011330       ?DoDataExchange@CFlatFieldDlg@@MAEXPAVCDataExchange@@@Z 67d92330 f   FlatFieldDlg.obj
 0001:00011540       ?GetMessageMap@CFlatFieldDlg@@MBEPBUAFX_MSGMAP@@XZ 67d92540 f   FlatFieldDlg.obj
 0001:00011570       ?GetThisMessageMap@CFlatFieldDlg@@KGPBUAFX_MSGMAP@@XZ 67d92570 f   FlatFieldDlg.obj
 0001:00011580       ?OnInitDialog@CFlatFieldDlg@@MAEHXZ 67d92580 f   FlatFieldDlg.obj
 0001:00012670       ?OnDestroy@CFlatFieldDlg@@IAEXXZ 67d93670 f   FlatFieldDlg.obj
 0001:000126a0       ?OnDarkImage@CFlatFieldDlg@@IAEXXZ 67d936a0 f   FlatFieldDlg.obj
 0001:00012fd0       ?DarkImage@CFlatFieldDlg@@AAEXXZ 67d93fd0 f   FlatFieldDlg.obj
 0001:00013830       ?OnBrightImage@CFlatFieldDlg@@IAEXXZ 67d94830 f   FlatFieldDlg.obj
 0001:000140a0       ?BrightImage@CFlatFieldDlg@@AAEXXZ 67d950a0 f   FlatFieldDlg.obj
 0001:00014e60       ?OnOK@CFlatFieldDlg@@MAEXXZ 67d95e60 f   FlatFieldDlg.obj
 0001:00014f10       ?OnCancel@CFlatFieldDlg@@MAEXXZ 67d95f10 f   FlatFieldDlg.obj
 0001:00014ff0       ?OnSelchangeCorrectionType@CFlatFieldDlg@@IAEXXZ 67d95ff0 f   FlatFieldDlg.obj
 0001:000150a0       ?OnSelchangeVideoType@CFlatFieldDlg@@IAEXXZ 67d960a0 f   FlatFieldDlg.obj
 0001:00015110       ?OnSelchangeCalibrationIndex@CFlatFieldDlg@@IAEXXZ 67d96110 f   FlatFieldDlg.obj
 0001:00015170       ?Snap@CFlatFieldDlg@@QAEHXZ 67d96170 f   FlatFieldDlg.obj
 0001:000153b0       ?LogMessage@CFlatFieldDlg@@AAEXHV?$CStringT@DV?$StrTraitMFC_DLL@DV?$ChTraitsCRT@D@ATL@@@@@ATL@@@Z 67d963b0 f   FlatFieldDlg.obj
 0001:000155c0       ?GetAverageStr@CFlatFieldDlg@@ABE?AV?$CStringT@DV?$StrTraitMFC_DLL@DV?$ChTraitsCRT@D@ATL@@@@@ATL@@AAVSapFlatFieldStats@@@Z 67d965c0 f   FlatFieldDlg.obj
 0001:00015820       ?GetStdDeviationStr@CFlatFieldDlg@@ABE?AV?$CStringT@DV?$StrTraitMFC_DLL@DV?$ChTraitsCRT@D@ATL@@@@@ATL@@AAVSapFlatFieldStats@@@Z 67d96820 f   FlatFieldDlg.obj
 0001:00015a80       ?GetLowStr@CFlatFieldDlg@@ABE?AV?$CStringT@DV?$StrTraitMFC_DLL@DV?$ChTraitsCRT@D@ATL@@@@@ATL@@AAVSapFlatFieldStats@@@Z 67d96a80 f   FlatFieldDlg.obj
 0001:00015ce0       ?GetHighStr@CFlatFieldDlg@@ABE?AV?$CStringT@DV?$StrTraitMFC_DLL@DV?$ChTraitsCRT@D@ATL@@@@@ATL@@AAVSapFlatFieldStats@@@Z 67d96ce0 f   FlatFieldDlg.obj
 0001:00015f40       ?GetPeakPositionStr@CFlatFieldDlg@@ABE?AV?$CStringT@DV?$StrTraitMFC_DLL@DV?$ChTraitsCRT@D@ATL@@@@@ATL@@AAVSapFlatFieldStats@@@Z 67d96f40 f   FlatFieldDlg.obj
 0001:000161a0       ?GetPixelRatioStr@CFlatFieldDlg@@ABE?AV?$CStringT@DV?$StrTraitMFC_DLL@DV?$ChTraitsCRT@D@ATL@@@@@ATL@@AAVSapFlatFieldStats@@@Z 67d971a0 f   FlatFieldDlg.obj
 0001:00016400       ?GetNumPixelsStr@CFlatFieldDlg@@ABE?AV?$CStringT@DV?$StrTraitMFC_DLL@DV?$ChTraitsCRT@D@ATL@@@@@ATL@@AAVSapFlatFieldStats@@@Z 67d97400 f   FlatFieldDlg.obj
 0001:00016660       ?OnSaveAndUpload@CFlatFieldDlg@@IAEXXZ 67d97660 f   FlatFieldDlg.obj
 0001:000169d0       ?pow@@YANNH@Z              67d979d0 f i FlatFieldDlg.obj
 0001:00016a00       ??_ESapBuffer@@UAEPAXI@Z   67d97a00 f i FlatFieldDlg.obj
 0001:00016a00       ??_GSapBuffer@@UAEPAXI@Z   67d97a00 f i FlatFieldDlg.obj
 0001:00016a50       ??$_Pow_int@N@@YANNH@Z     67d97a50 f i FlatFieldDlg.obj
 0001:00016ad0       ??_ECFlatFieldDlg@@WJE@AEPAXI@Z 67d97ad0 f i FlatFieldDlg.obj
 0001:00016ae0       ?GetPathName@CLoadSaveDlg@@QAE?AV?$CStringT@DV?$StrTraitMFC_DLL@DV?$ChTraitsCRT@D@ATL@@@@@ATL@@XZ 67d97ae0 f i FlatFieldDlg.obj
 0001:00016b40       ??1CLoadSaveDlg@@UAE@XZ    67d97b40 f i FlatFieldDlg.obj
 0001:00016b80       ??_GCFlatFieldDlg@@UAEPAXI@Z 67d97b80 f i FlatFieldDlg.obj
 0001:00016bc0       ??_ECFlatFieldDlg@@UAEPAXI@Z 67d97bc0 f i FlatFieldDlg.obj
 0001:00016c40       ??0CGioBidirectionalDlg@@QAE@PAVCWnd@@IPAVSapGio@@@Z 67d97c40 f   GioBidirectionalDlg.obj
 0001:00016d70       ?DoDataExchange@CGioBidirectionalDlg@@MAEXPAVCDataExchange@@@Z 67d97d70 f   GioBidirectionalDlg.obj
 0001:00016df0       ?MoveWindow@CGioBidirectionalDlg@@QAEII@Z 67d97df0 f   GioBidirectionalDlg.obj
 0001:00016eb0       ?GetMessageMap@CGioBidirectionalDlg@@MBEPBUAFX_MSGMAP@@XZ 67d97eb0 f   GioBidirectionalDlg.obj
 0001:00016ee0       ?GetThisMessageMap@CGioBidirectionalDlg@@KGPBUAFX_MSGMAP@@XZ 67d97ee0 f   GioBidirectionalDlg.obj
 0001:00016ef0       ?PreTranslateMessage@CGioBidirectionalDlg@@UAEHPAUtagMSG@@@Z 67d97ef0 f   GioBidirectionalDlg.obj
 0001:00016f40       ?GioCallbackInfo@CGioBidirectionalDlg@@SAXPAVSapGioCallbackInfo@@@Z 67d97f40 f   GioBidirectionalDlg.obj
 0001:00017070       ?Create@CGioBidirectionalDlg@@QAEHXZ 67d98070 f   GioBidirectionalDlg.obj
 0001:000170c0       ?OnInitDialog@CGioBidirectionalDlg@@MAEHXZ 67d980c0 f   GioBidirectionalDlg.obj
 0001:00017de0       ?OnSelchangeComboSignalEvent@CGioBidirectionalDlg@@IAEXXZ 67d98de0 f   GioBidirectionalDlg.obj
 0001:00017e30       ?ChangePinDirection@CGioBidirectionalDlg@@IAEXIH@Z 67d98e30 f   GioBidirectionalDlg.obj
 0001:00017f60       ?OnSelchangeComboDir1@CGioBidirectionalDlg@@IAEXXZ 67d98f60 f   GioBidirectionalDlg.obj
 0001:00017fa0       ?OnSelchangeComboDir2@CGioBidirectionalDlg@@IAEXXZ 67d98fa0 f   GioBidirectionalDlg.obj
 0001:00017fe0       ?OnSelchangeComboDir3@CGioBidirectionalDlg@@IAEXXZ 67d98fe0 f   GioBidirectionalDlg.obj
 0001:00018020       ?OnSelchangeComboDir4@CGioBidirectionalDlg@@IAEXXZ 67d99020 f   GioBidirectionalDlg.obj
 0001:00018060       ?OnSelchangeComboDir5@CGioBidirectionalDlg@@IAEXXZ 67d99060 f   GioBidirectionalDlg.obj
 0001:000180a0       ?OnSelchangeComboDir6@CGioBidirectionalDlg@@IAEXXZ 67d990a0 f   GioBidirectionalDlg.obj
 0001:000180e0       ?OnSelchangeComboDir7@CGioBidirectionalDlg@@IAEXXZ 67d990e0 f   GioBidirectionalDlg.obj
 0001:00018120       ?OnSelchangeComboDir8@CGioBidirectionalDlg@@IAEXXZ 67d99120 f   GioBidirectionalDlg.obj
 0001:00018160       ?OnSelchangeComboDir9@CGioBidirectionalDlg@@IAEXXZ 67d99160 f   GioBidirectionalDlg.obj
 0001:000181a0       ?OnSelchangeComboDir10@CGioBidirectionalDlg@@IAEXXZ 67d991a0 f   GioBidirectionalDlg.obj
 0001:000181e0       ?OnSelchangeComboDir11@CGioBidirectionalDlg@@IAEXXZ 67d991e0 f   GioBidirectionalDlg.obj
 0001:00018220       ?OnSelchangeComboDir12@CGioBidirectionalDlg@@IAEXXZ 67d99220 f   GioBidirectionalDlg.obj
 0001:00018260       ?OnEnableCallback@CGioBidirectionalDlg@@IAEXXZ 67d99260 f   GioBidirectionalDlg.obj
 0001:00018490       ?Update@CGioBidirectionalDlg@@QAEHXZ 67d99490 f   GioBidirectionalDlg.obj
 0001:00018730       ?OnSelchangeComboInputLevel@CGioBidirectionalDlg@@IAEXXZ 67d99730 f   GioBidirectionalDlg.obj
 0001:000187d0       ?OnCtlColor@CGioBidirectionalDlg@@IAEPAUHBRUSH__@@PAVCDC@@PAVCWnd@@I@Z 67d997d0 f   GioBidirectionalDlg.obj
 0001:00018840       ?ResetInterruptCount@CGioBidirectionalDlg@@IAEHXZ 67d99840 f   GioBidirectionalDlg.obj
 0001:000189b0       ?OnBtReset@CGioBidirectionalDlg@@IAEXXZ 67d999b0 f   GioBidirectionalDlg.obj
 0001:000189e0       ?ChangePinState@CGioBidirectionalDlg@@IAEXH@Z 67d999e0 f   GioBidirectionalDlg.obj
 0001:00018bd0       ?OnPin1@CGioBidirectionalDlg@@IAEXXZ 67d99bd0 f   GioBidirectionalDlg.obj
 0001:00018c00       ?OnPin2@CGioBidirectionalDlg@@IAEXXZ 67d99c00 f   GioBidirectionalDlg.obj
 0001:00018c30       ?OnPin3@CGioBidirectionalDlg@@IAEXXZ 67d99c30 f   GioBidirectionalDlg.obj
 0001:00018c60       ?OnPin4@CGioBidirectionalDlg@@IAEXXZ 67d99c60 f   GioBidirectionalDlg.obj
 0001:00018c90       ?OnPin5@CGioBidirectionalDlg@@IAEXXZ 67d99c90 f   GioBidirectionalDlg.obj
 0001:00018cc0       ?OnPin6@CGioBidirectionalDlg@@IAEXXZ 67d99cc0 f   GioBidirectionalDlg.obj
 0001:00018cf0       ?OnPin7@CGioBidirectionalDlg@@IAEXXZ 67d99cf0 f   GioBidirectionalDlg.obj
 0001:00018d20       ?OnPin8@CGioBidirectionalDlg@@IAEXXZ 67d99d20 f   GioBidirectionalDlg.obj
 0001:00018d50       ?OnPin9@CGioBidirectionalDlg@@IAEXXZ 67d99d50 f   GioBidirectionalDlg.obj
 0001:00018d80       ?OnPin10@CGioBidirectionalDlg@@IAEXXZ 67d99d80 f   GioBidirectionalDlg.obj
 0001:00018db0       ?OnPin11@CGioBidirectionalDlg@@IAEXXZ 67d99db0 f   GioBidirectionalDlg.obj
 0001:00018de0       ?OnPin12@CGioBidirectionalDlg@@IAEXXZ 67d99de0 f   GioBidirectionalDlg.obj
 0001:00018fd0       ??_GCGioBidirectionalDlg@@UAEPAXI@Z 67d99fd0 f i GioBidirectionalDlg.obj
 0001:00019010       ??1CGioBidirectionalDlg@@UAE@XZ 67d9a010 f i GioBidirectionalDlg.obj
 0001:000190b0       ??_ECGioBidirectionalDlg@@UAEPAXI@Z 67d9a0b0 f i GioBidirectionalDlg.obj
 0001:00019130       ??0CGioInputDlg@@QAE@PAVCWnd@@IPAVSapGio@@@Z 67d9a130 f   GioInputDlg.obj
 0001:00019260       ?DoDataExchange@CGioInputDlg@@MAEXPAVCDataExchange@@@Z 67d9a260 f   GioInputDlg.obj
 0001:000192e0       ?MoveWindow@CGioInputDlg@@QAEII@Z 67d9a2e0 f   GioInputDlg.obj
 0001:000193a0       ?GetMessageMap@CGioInputDlg@@MBEPBUAFX_MSGMAP@@XZ 67d9a3a0 f   GioInputDlg.obj
 0001:000193d0       ?GetThisMessageMap@CGioInputDlg@@KGPBUAFX_MSGMAP@@XZ 67d9a3d0 f   GioInputDlg.obj
 0001:000193e0       ?PreTranslateMessage@CGioInputDlg@@UAEHPAUtagMSG@@@Z 67d9a3e0 f   GioInputDlg.obj
 0001:00019430       ?GioCallbackInfo@CGioInputDlg@@SAXPAVSapGioCallbackInfo@@@Z 67d9a430 f   GioInputDlg.obj
 0001:00019560       ?Create@CGioInputDlg@@QAEHXZ 67d9a560 f   GioInputDlg.obj
 0001:000195b0       ?OnInitDialog@CGioInputDlg@@MAEHXZ 67d9a5b0 f   GioInputDlg.obj
 0001:0001a1b0       ?OnSelchangeComboSignalEvent@CGioInputDlg@@IAEXXZ 67d9b1b0 f   GioInputDlg.obj
 0001:0001a200       ?OnEnableCallback@CGioInputDlg@@IAEXXZ 67d9b200 f   GioInputDlg.obj
 0001:0001a340       ?Update@CGioInputDlg@@QAEHXZ 67d9b340 f   GioInputDlg.obj
 0001:0001a5e0       ?OnSelchangeComboInputLevel@CGioInputDlg@@IAEXXZ 67d9b5e0 f   GioInputDlg.obj
 0001:0001a680       ?OnCtlColor@CGioInputDlg@@IAEPAUHBRUSH__@@PAVCDC@@PAVCWnd@@I@Z 67d9b680 f   GioInputDlg.obj
 0001:0001a6f0       ?ResetInterruptCount@CGioInputDlg@@IAEHXZ 67d9b6f0 f   GioInputDlg.obj
 0001:0001a860       ?OnBtReset@CGioInputDlg@@IAEXXZ 67d9b860 f   GioInputDlg.obj
 0001:0001aa50       ??_GCGioInputDlg@@UAEPAXI@Z 67d9ba50 f i GioInputDlg.obj
 0001:0001aa90       ??1CGioInputDlg@@UAE@XZ    67d9ba90 f i GioInputDlg.obj
 0001:0001ab30       ??_ECGioInputDlg@@UAEPAXI@Z 67d9bb30 f i GioInputDlg.obj
 0001:0001abb0       ??0CGioOutputDlg@@QAE@PAVCWnd@@IPAVSapGio@@@Z 67d9bbb0 f   GioOutputDlg.obj
 0001:0001ad00       ?DoDataExchange@CGioOutputDlg@@MAEXPAVCDataExchange@@@Z 67d9bd00 f   GioOutputDlg.obj
 0001:0001ad90       ?PreTranslateMessage@CGioOutputDlg@@UAEHPAUtagMSG@@@Z 67d9bd90 f   GioOutputDlg.obj
 0001:0001ade0       ?MoveWindow@CGioOutputDlg@@QAEII@Z 67d9bde0 f   GioOutputDlg.obj
 0001:0001aea0       ?GetMessageMap@CGioOutputDlg@@MBEPBUAFX_MSGMAP@@XZ 67d9bea0 f   GioOutputDlg.obj
 0001:0001aed0       ?GetThisMessageMap@CGioOutputDlg@@KGPBUAFX_MSGMAP@@XZ 67d9bed0 f   GioOutputDlg.obj
 0001:0001aee0       ?Update@CGioOutputDlg@@QAEHXZ 67d9bee0 f   GioOutputDlg.obj
 0001:0001b130       ?Create@CGioOutputDlg@@QAEHXZ 67d9c130 f   GioOutputDlg.obj
 0001:0001b180       ?OnInitDialog@CGioOutputDlg@@MAEHXZ 67d9c180 f   GioOutputDlg.obj
 0001:0001bca0       ?InitOutputDlg@CGioOutputDlg@@QAEHXZ 67d9cca0 f   GioOutputDlg.obj
 0001:0001bed0       ?InitComboOutputState@CGioOutputDlg@@QAEXXZ 67d9ced0 f   GioOutputDlg.obj
 0001:0001c1c0       ?OnSelchangeComboOutputState@CGioOutputDlg@@IAEXXZ 67d9d1c0 f   GioOutputDlg.obj
 0001:0001c1f0       ?UpdateIO@CGioOutputDlg@@IAEXXZ 67d9d1f0 f   GioOutputDlg.obj
 0001:0001c460       ?OnCtlColor@CGioOutputDlg@@IAEPAUHBRUSH__@@PAVCDC@@PAVCWnd@@I@Z 67d9d460 f   GioOutputDlg.obj
 0001:0001c4d0       ?ChangePinState@CGioOutputDlg@@QAEXPAVCButton@@@Z 67d9d4d0 f   GioOutputDlg.obj
 0001:0001c630       ?OnPin1@CGioOutputDlg@@IAEXXZ 67d9d630 f   GioOutputDlg.obj
 0001:0001c670       ?OnPin2@CGioOutputDlg@@IAEXXZ 67d9d670 f   GioOutputDlg.obj
 0001:0001c6b0       ?OnPin3@CGioOutputDlg@@IAEXXZ 67d9d6b0 f   GioOutputDlg.obj
 0001:0001c6f0       ?OnPin4@CGioOutputDlg@@IAEXXZ 67d9d6f0 f   GioOutputDlg.obj
 0001:0001c730       ?OnPin5@CGioOutputDlg@@IAEXXZ 67d9d730 f   GioOutputDlg.obj
 0001:0001c770       ?OnPin6@CGioOutputDlg@@IAEXXZ 67d9d770 f   GioOutputDlg.obj
 0001:0001c7b0       ?OnPin7@CGioOutputDlg@@IAEXXZ 67d9d7b0 f   GioOutputDlg.obj
 0001:0001c7f0       ?OnPin8@CGioOutputDlg@@IAEXXZ 67d9d7f0 f   GioOutputDlg.obj
 0001:0001c830       ?OnPin9@CGioOutputDlg@@IAEXXZ 67d9d830 f   GioOutputDlg.obj
 0001:0001c870       ?OnPin10@CGioOutputDlg@@IAEXXZ 67d9d870 f   GioOutputDlg.obj
 0001:0001c8b0       ?OnPin11@CGioOutputDlg@@IAEXXZ 67d9d8b0 f   GioOutputDlg.obj
 0001:0001c8f0       ?OnPin12@CGioOutputDlg@@IAEXXZ 67d9d8f0 f   GioOutputDlg.obj
 0001:0001caf0       ??_GCGioOutputDlg@@UAEPAXI@Z 67d9daf0 f i GioOutputDlg.obj
 0001:0001cb30       ??1CGioOutputDlg@@UAE@XZ   67d9db30 f i GioOutputDlg.obj
 0001:0001cc00       ??_ECGioOutputDlg@@UAEPAXI@Z 67d9dc00 f i GioOutputDlg.obj
 0001:0001cc80       ??0CImageWnd@@QAE@PAVSapView@@PAVCWnd@@PAVCScrollBar@@21@Z 67d9dc80 f   ImageWnd.obj
 0001:0001cdd0       ??0CImageWnd@@QAE@PAVSapView@@PAVCWnd@@@Z 67d9ddd0 f   ImageWnd.obj
 0001:0001cf00       ??1CImageWnd@@UAE@XZ       67d9df00 f   ImageWnd.obj
 0001:0001cf30       ?GetScrollPos@CImageWnd@@IAEHH@Z 67d9df30 f   ImageWnd.obj
 0001:0001cfe0       ?GetScrollRange@CImageWnd@@IAEXHPAH0@Z 67d9dfe0 f   ImageWnd.obj
 0001:0001d0a0       ?GetScrollInfo@CImageWnd@@IAEHHPAUtagSCROLLINFO@@@Z 67d9e0a0 f   ImageWnd.obj
 0001:0001d150       ?SetScrollPos@CImageWnd@@IAEHHHH@Z 67d9e150 f   ImageWnd.obj
 0001:0001d220       ?SetScrollInfo@CImageWnd@@IAEHHPAUtagSCROLLINFO@@H@Z 67d9e220 f   ImageWnd.obj
 0001:0001d2e0       ?IsPointInside@CImageWnd@@QAEHVCPoint@@@Z 67d9e2e0 f   ImageWnd.obj
 0001:0001d330       ?TranslateMousePos@CImageWnd@@QAE?AVCPoint@@V2@@Z 67d9e330 f   ImageWnd.obj
 0001:0001d420       ?TranslatePos@CImageWnd@@QAE?AVCPoint@@V2@@Z 67d9e420 f   ImageWnd.obj
 0001:0001d690       ?UntranslatePos@CImageWnd@@QAE?AVCPoint@@V2@@Z 67d9e690 f   ImageWnd.obj
 0001:0001d8c0       ?UpdateClientArea@CImageWnd@@QAEXK@Z 67d9e8c0 f   ImageWnd.obj
 0001:0001da80       ?UpdateClientArea@CImageWnd@@QAEXXZ 67d9ea80 f   ImageWnd.obj
 0001:0001db00       ?OnMove@CImageWnd@@QAEXXZ  67d9eb00 f   ImageWnd.obj
 0001:0001db70       ?OnPaint@CImageWnd@@QAEXXZ 67d9eb70 f   ImageWnd.obj
 0001:0001dbe0       ?OnSize@CImageWnd@@QAEXH@Z 67d9ebe0 f   ImageWnd.obj
 0001:0001e170       ?Invalidate@CImageWnd@@QAEXH@Z 67d9f170 f   ImageWnd.obj
 0001:0001e1c0       ?UpdateScrollBars@CImageWnd@@IAEXXZ 67d9f1c0 f   ImageWnd.obj
 0001:0001e5b0       ?OnHScroll@CImageWnd@@QAEXII@Z 67d9f5b0 f   ImageWnd.obj
 0001:0001e750       ?OnVScroll@CImageWnd@@QAEXII@Z 67d9f750 f   ImageWnd.obj
 0001:0001e8f0       ?DisplayRoiTracker@CImageWnd@@QAEXXZ 67d9f8f0 f   ImageWnd.obj
 0001:0001ea80       ?HideRoiTracker@CImageWnd@@QAEXXZ 67d9fa80 f   ImageWnd.obj
 0001:0001eb30       ?UpdateRectTracker@CImageWnd@@IAEXXZ 67d9fb30 f   ImageWnd.obj
 0001:0001ebd0       ?ValidateRoi@CImageWnd@@IAE?AVCRect@@V2@@Z 67d9fbd0 f   ImageWnd.obj
 0001:0001ed60       ?GetSelectedRoi@CImageWnd@@QAE?AVCRect@@XZ 67d9fd60 f   ImageWnd.obj
 0001:0001eda0       ?SelectRoi@CImageWnd@@QAEXVCRect@@@Z 67d9fda0 f   ImageWnd.obj
 0001:0001ee40       ?OnLButtonDown@CImageWnd@@QAEHVCPoint@@@Z 67d9fe40 f   ImageWnd.obj
 0001:0001f010       ?OnSetCursor@CImageWnd@@QAEHI@Z 67da0010 f   ImageWnd.obj
 0001:0001f150       ?GetPixelString@CImageWnd@@QAE?AV?$CStringT@DV?$StrTraitMFC_DLL@DV?$ChTraitsCRT@D@ATL@@@@@ATL@@VCPoint@@@Z 67da0150 f   ImageWnd.obj
 0001:00020100       ?AdjustRect@CSapRectTracker@@UAEXHPAUtagRECT@@@Z 67da1100 f   ImageWnd.obj
 0001:000201e0       ?SetLimitRect@CSapRectTracker@@QAEXPAVCRect@@@Z 67da11e0 f   ImageWnd.obj
 0001:00020230       ??0CSapRectTracker@@QAE@XZ 67da1230 f i ImageWnd.obj
 0001:00020270       ??HATL@@YA?AV?$CStringT@DV?$StrTraitMFC_DLL@DV?$ChTraitsCRT@D@ATL@@@@@0@PBDABV10@@Z 67da1270 f i ImageWnd.obj
 0001:000203c0       ??_ECImageWnd@@UAEPAXI@Z   67da13c0 f i ImageWnd.obj
 0001:00020440       ??1CSapRectTracker@@UAE@XZ 67da1440 f i ImageWnd.obj
 0001:00020470       ??_ECSapRectTracker@@UAEPAXI@Z 67da1470 f i ImageWnd.obj
 0001:00020470       ??_GCSapRectTracker@@UAEPAXI@Z 67da1470 f i ImageWnd.obj
 0001:000204b0       ??0CJpegFileDlg@@QAE@PAVCWnd@@H@Z 67da14b0 f   JpegFileDlg.obj
 0001:00020570       ?OnFinalRelease@CJpegFileDlg@@UAEXXZ 67da1570 f   JpegFileDlg.obj
 0001:000205a0       ?DoDataExchange@CJpegFileDlg@@MAEXPAVCDataExchange@@@Z 67da15a0 f   JpegFileDlg.obj
 0001:00020600       ?GetMessageMap@CJpegFileDlg@@MBEPBUAFX_MSGMAP@@XZ 67da1600 f   JpegFileDlg.obj
 0001:00020630       ?GetThisMessageMap@CJpegFileDlg@@KGPBUAFX_MSGMAP@@XZ 67da1630 f   JpegFileDlg.obj
 0001:00020640       ?GetThisDispatchMap@CJpegFileDlg@@KGPBUAFX_DISPMAP@@XZ 67da1640 f   JpegFileDlg.obj
 0001:00020650       ?GetDispatchMap@CJpegFileDlg@@MBEPBUAFX_DISPMAP@@XZ 67da1650 f   JpegFileDlg.obj
 0001:00020670       ?GetThisInterfaceMap@CJpegFileDlg@@KGPBUAFX_INTERFACEMAP@@XZ 67da1670 f   JpegFileDlg.obj
 0001:00020680       ?GetInterfaceMap@CJpegFileDlg@@MBEPBUAFX_INTERFACEMAP@@XZ 67da1680 f   JpegFileDlg.obj
 0001:000206a0       ?OnVScroll@CJpegFileDlg@@IAEXIIPAVCScrollBar@@@Z 67da16a0 f   JpegFileDlg.obj
 0001:00020770       ?OnOK@CJpegFileDlg@@MAEXXZ 67da1770 f   JpegFileDlg.obj
 0001:000207d0       ?OnUpdateJpgEditQuality@CJpegFileDlg@@IAEXXZ 67da17d0 f   JpegFileDlg.obj
 0001:00020800       ??_GCJpegFileDlg@@UAEPAXI@Z 67da1800 f i JpegFileDlg.obj
 0001:00020800       ??_ECJpegFileDlg@@UAEPAXI@Z 67da1800 f i JpegFileDlg.obj
 0001:00020840       ??1CJpegFileDlg@@UAE@XZ    67da1840 f i JpegFileDlg.obj
 0001:00020870       ?_GetBaseClass@CLoadSaveDlg@@KGPAUCRuntimeClass@@XZ 67da1870 f   LoadSaveDlg.obj
 0001:00020890       ?GetThisClass@CLoadSaveDlg@@SGPAUCRuntimeClass@@XZ 67da1890 f   LoadSaveDlg.obj
 0001:000208a0       ?GetRuntimeClass@CLoadSaveDlg@@UBEPAUCRuntimeClass@@XZ 67da18a0 f   LoadSaveDlg.obj
 0001:000208c0       ??0CLoadSaveDlg@@QAE@PAVCWnd@@PAVSapBuffer@@HH@Z 67da18c0 f   LoadSaveDlg.obj
 0001:00020a10       ?UpdateBuffer@CLoadSaveDlg@@IAEHXZ 67da1a10 f   LoadSaveDlg.obj
 0001:00020ec0       ?DoModal@CLoadSaveDlg@@UAEHXZ 67da1ec0 f   LoadSaveDlg.obj
 0001:00020f80       ?LoadSettings@CLoadSaveDlg@@IAEXXZ 67da1f80 f   LoadSaveDlg.obj
 0001:000210c0       ?SaveSettings@CLoadSaveDlg@@IAEXXZ 67da20c0 f   LoadSaveDlg.obj
 0001:000211e0       ?SetOptions@CLoadSaveDlg@@IAEHXZ 67da21e0 f   LoadSaveDlg.obj
 0001:000213b0       ?AddTiffOptions@CLoadSaveDlg@@IAEHXZ 67da23b0 f   LoadSaveDlg.obj
 0001:000216a0       ?AddRawOptions@CLoadSaveDlg@@IAEHXZ 67da26a0 f   LoadSaveDlg.obj
 0001:000219b0       ?AddJpegOptions@CLoadSaveDlg@@IAEHXZ 67da29b0 f   LoadSaveDlg.obj
 0001:00021ba0       ?AddAviOptions@CLoadSaveDlg@@IAEHXZ 67da2ba0 f   LoadSaveDlg.obj
 0001:00021cc0       ?SetFilterIndex@CLoadSaveDlg@@IAEXXZ 67da2cc0 f   LoadSaveDlg.obj
 0001:00021d90       ?OnTypeChange@CLoadSaveDlg@@MAEXXZ 67da2d90 f   LoadSaveDlg.obj
 0001:00021eb0       ?GetMessageMap@CLoadSaveDlg@@MBEPBUAFX_MSGMAP@@XZ 67da2eb0 f   LoadSaveDlg.obj
 0001:00021ee0       ?GetThisMessageMap@CLoadSaveDlg@@KGPBUAFX_MSGMAP@@XZ 67da2ee0 f   LoadSaveDlg.obj
 0001:00021fd0       ?GetCompressionLevel@CTiffFileDlg@@QAEHXZ 67da2fd0 f i LoadSaveDlg.obj
 0001:00021ff0       ?GetCompressionType@CTiffFileDlg@@QAEHXZ 67da2ff0 f i LoadSaveDlg.obj
 0001:00022010       ??1CTiffFileDlg@@UAE@XZ    67da3010 f i LoadSaveDlg.obj
 0001:00022040       ?GetRawFileWidth@CRawFileDlg@@QAEHXZ 67da3040 f i LoadSaveDlg.obj
 0001:00022060       ?GetRawFileHeight@CRawFileDlg@@QAEHXZ 67da3060 f i LoadSaveDlg.obj
 0001:00022080       ?GetRawFileOffset@CRawFileDlg@@QAEHXZ 67da3080 f i LoadSaveDlg.obj
 0001:000220a0       ?GetRawFileFormat@CRawFileDlg@@QAEHXZ 67da30a0 f i LoadSaveDlg.obj
 0001:000220c0       ??1CRawFileDlg@@UAE@XZ     67da30c0 f i LoadSaveDlg.obj
 0001:00022130       ?GetJpegFileQuality@CJpegFileDlg@@QAEHXZ 67da3130 f i LoadSaveDlg.obj
 0001:00022150       ?GetFirstFrame@CAviFileDlg@@QAEHXZ 67da3150 f i LoadSaveDlg.obj
 0001:00022170       ??_GCLoadSaveDlg@@UAEPAXI@Z 67da3170 f i LoadSaveDlg.obj
 0001:000221b0       ??_ECLoadSaveDlg@@UAEPAXI@Z 67da31b0 f i LoadSaveDlg.obj
 0001:00022230       ??0CLScanDlg@@QAE@PAVCWnd@@PAVSapAcquisition@@@Z 67da3230 f   LScanDlg.obj
 0001:00022370       ?DoDataExchange@CLScanDlg@@MAEXPAVCDataExchange@@@Z 67da3370 f   LScanDlg.obj
 0001:00022490       ?GetMessageMap@CLScanDlg@@MBEPBUAFX_MSGMAP@@XZ 67da3490 f   LScanDlg.obj
 0001:000224c0       ?GetThisMessageMap@CLScanDlg@@KGPBUAFX_MSGMAP@@XZ 67da34c0 f   LScanDlg.obj
 0001:000224d0       ?OnOK@CLScanDlg@@MAEXXZ    67da34d0 f   LScanDlg.obj
 0001:00022c30       ?OnInitDialog@CLScanDlg@@MAEHXZ 67da3c30 f   LScanDlg.obj
 0001:00023b70       ?UpdateWindow@CLScanDlg@@IAEXXZ 67da4b70 f   LScanDlg.obj
 0001:00023f10       ?OnKillfocusEditLineIntegration@CLScanDlg@@IAEXXZ 67da4f10 f   LScanDlg.obj
 0001:00023f50       ?OnExternalFrameTriggerEnable@CLScanDlg@@IAEXXZ 67da4f50 f   LScanDlg.obj
 0001:00024000       ?OnExternalLineTriggerEnable@CLScanDlg@@IAEXXZ 67da5000 f   LScanDlg.obj
 0001:000240d0       ?OnLineIntegrate@CLScanDlg@@IAEXXZ 67da50d0 f   LScanDlg.obj
 0001:00024100       ?OnVScroll@CLScanDlg@@IAEXIIPAVCScrollBar@@@Z 67da5100 f   LScanDlg.obj
 0001:00024250       ?VerifyLineIntegrateDuration@CLScanDlg@@IAEXXZ 67da5250 f   LScanDlg.obj
 0001:00024400       ?OnInternalLineTriggerEnable@CLScanDlg@@IAEXXZ 67da5400 f   LScanDlg.obj
 0001:00024490       ?OnLineIntegrateEnable@CLScanDlg@@IAEXXZ 67da5490 f   LScanDlg.obj
 0001:00024510       ?OnShaftEncoderEnable@CLScanDlg@@IAEXXZ 67da5510 f   LScanDlg.obj
 0001:00024690       ??_ECLScanDlg@@WJE@AEPAXI@Z 67da5690 f i LScanDlg.obj
 0001:000246a0       ??_GCLScanDlg@@UAEPAXI@Z   67da56a0 f i LScanDlg.obj
 0001:000246e0       ??1CLScanDlg@@UAE@XZ       67da56e0 f i LScanDlg.obj
 0001:00024780       ??_ECLScanDlg@@UAEPAXI@Z   67da5780 f i LScanDlg.obj
 0001:00024800       ??0CPixProAbsSubDlg@@QAE@PAVCWnd@@PAUCORPPL_FCT_PROP@@PAVSapPixProParams@@@Z 67da5800 f   PixProAbsSubDlg.obj
 0001:00024890       ?DoDataExchange@CPixProAbsSubDlg@@MAEXPAVCDataExchange@@@Z 67da5890 f   PixProAbsSubDlg.obj
 0001:000248c0       ?GetMessageMap@CPixProAbsSubDlg@@MBEPBUAFX_MSGMAP@@XZ 67da58c0 f   PixProAbsSubDlg.obj
 0001:000248f0       ?GetThisMessageMap@CPixProAbsSubDlg@@KGPBUAFX_MSGMAP@@XZ 67da58f0 f   PixProAbsSubDlg.obj
 0001:00024900       ?OnInitDialog@CPixProAbsSubDlg@@MAEHXZ 67da5900 f   PixProAbsSubDlg.obj
 0001:000249c0       ?OnPixproSdramBank0@CPixProAbsSubDlg@@IAEXXZ 67da59c0 f   PixProAbsSubDlg.obj
 0001:000249e0       ?OnPixproSdramBank1@CPixProAbsSubDlg@@IAEXXZ 67da59e0 f   PixProAbsSubDlg.obj
 0001:00024a00       ?OnPixproAbsSub@CPixProAbsSubDlg@@IAEXXZ 67da5a00 f   PixProAbsSubDlg.obj
 0001:00024a20       ?OnPixproRefImage@CPixProAbsSubDlg@@IAEXXZ 67da5a20 f   PixProAbsSubDlg.obj
 0001:00024a40       ?OnOK@CPixProAbsSubDlg@@MAEXXZ 67da5a40 f   PixProAbsSubDlg.obj
 0001:00024ab0       ??_GCPixProAbsSubDlg@@UAEPAXI@Z 67da5ab0 f i PixProAbsSubDlg.obj
 0001:00024ab0       ??_ECPixProAbsSubDlg@@UAEPAXI@Z 67da5ab0 f i PixProAbsSubDlg.obj
 0001:00024af0       ??1CPixProAbsSubDlg@@UAE@XZ 67da5af0 f i PixProAbsSubDlg.obj
 0001:00024b20       ??0CPixProDlg@@QAE@PAVCWnd@@PAVSapPixPro@@PAVSapXferNode@@@Z 67da5b20 f   PixProDlg.obj
 0001:00024dd0       ?LoadSettings@CPixProDlg@@IAEXXZ 67da5dd0 f   PixProDlg.obj
 0001:00025030       ?SaveSettings@CPixProDlg@@IAEXXZ 67da6030 f   PixProDlg.obj
 0001:000251d0       ?SetDirectories@CPixProDlg@@IAEXXZ 67da61d0 f   PixProDlg.obj
 0001:00025500       ?DoDataExchange@CPixProDlg@@MAEXPAVCDataExchange@@@Z 67da6500 f   PixProDlg.obj
 0001:000255c0       ?GetMessageMap@CPixProDlg@@MBEPBUAFX_MSGMAP@@XZ 67da65c0 f   PixProDlg.obj
 0001:000255f0       ?GetThisMessageMap@CPixProDlg@@KGPBUAFX_MSGMAP@@XZ 67da65f0 f   PixProDlg.obj
 0001:00025600       ?OnInitDialog@CPixProDlg@@MAEHXZ 67da6600 f   PixProDlg.obj
 0001:00025650       ?OnBrowse@CPixProDlg@@IAEXXZ 67da6650 f   PixProDlg.obj
 0001:000257a0       ?OnOK@CPixProDlg@@MAEXXZ   67da67a0 f   PixProDlg.obj
 0001:00025cb0       ?OnKillfocusEditPath@CPixProDlg@@IAEXXZ 67da6cb0 f   PixProDlg.obj
 0001:00025d60       ?UpdateCurrentDir@CPixProDlg@@IAEXPAD@Z 67da6d60 f   PixProDlg.obj
 0001:00025e10       ?UpdateNames@CPixProDlg@@IAEXXZ 67da6e10 f   PixProDlg.obj
 0001:00026190       ?UpdateBoxAvailability@CPixProDlg@@IAEXXZ 67da7190 f   PixProDlg.obj
 0001:00026250       ?OnSelchangeCombo@CPixProDlg@@IAEXXZ 67da7250 f   PixProDlg.obj
 0001:000262f0       ?FillFunctionCombo@CPixProDlg@@IAEXXZ 67da72f0 f   PixProDlg.obj
 0001:00026730       ?OnSelchangeFunction@CPixProDlg@@IAEXXZ 67da7730 f   PixProDlg.obj
 0001:000269f0       ??1CPixProRefImageDlg@@UAE@XZ 67da79f0 f i PixProDlg.obj
 0001:00026a20       ??1CPixProUflowSubDlg@@UAE@XZ 67da7a20 f i PixProDlg.obj
 0001:00026a50       ??1CPixProWAvgDlg@@UAE@XZ  67da7a50 f i PixProDlg.obj
 0001:00026ac0       ??1CPixProIntScaleDlg@@UAE@XZ 67da7ac0 f i PixProDlg.obj
 0001:00026b30       ??_GCPixProDlg@@UAEPAXI@Z  67da7b30 f i PixProDlg.obj
 0001:00026b70       ??1CPixProDlg@@UAE@XZ      67da7b70 f i PixProDlg.obj
 0001:00026c30       ??_ECPixProDlg@@UAEPAXI@Z  67da7c30 f i PixProDlg.obj
 0001:00026cb0       ??0CPixProIntScaleDlg@@QAE@PAVCWnd@@PAUCORPPL_FCT_PROP@@PAVSapPixProParams@@@Z 67da7cb0 f   PixProIntScaleDlg.obj
 0001:00026d90       ?DoDataExchange@CPixProIntScaleDlg@@MAEXPAVCDataExchange@@@Z 67da7d90 f   PixProIntScaleDlg.obj
 0001:00026df0       ?GetMessageMap@CPixProIntScaleDlg@@MBEPBUAFX_MSGMAP@@XZ 67da7df0 f   PixProIntScaleDlg.obj
 0001:00026e20       ?GetThisMessageMap@CPixProIntScaleDlg@@KGPBUAFX_MSGMAP@@XZ 67da7e20 f   PixProIntScaleDlg.obj
 0001:00026e30       ?OnInitDialog@CPixProIntScaleDlg@@MAEHXZ 67da7e30 f   PixProIntScaleDlg.obj
 0001:00026f40       ?OnPixproSdramBank0@CPixProIntScaleDlg@@IAEXXZ 67da7f40 f   PixProIntScaleDlg.obj
 0001:00026f60       ?OnPixproSdramBank1@CPixProIntScaleDlg@@IAEXXZ 67da7f60 f   PixProIntScaleDlg.obj
 0001:00026f80       ?OnSelchangeCount@CPixProIntScaleDlg@@IAEXXZ 67da7f80 f   PixProIntScaleDlg.obj
 0001:00026fd0       ?OnOK@CPixProIntScaleDlg@@MAEXXZ 67da7fd0 f   PixProIntScaleDlg.obj
 0001:00027060       ??_GCPixProIntScaleDlg@@UAEPAXI@Z 67da8060 f i PixProIntScaleDlg.obj
 0001:00027060       ??_ECPixProIntScaleDlg@@UAEPAXI@Z 67da8060 f i PixProIntScaleDlg.obj
 0001:000270a0       ??0CPixProRefImageDlg@@QAE@PAVCWnd@@PAUCORPPL_FCT_PROP@@PAVSapPixProParams@@@Z 67da80a0 f   PixProRefImageDlg.obj
 0001:00027120       ?DoDataExchange@CPixProRefImageDlg@@MAEXPAVCDataExchange@@@Z 67da8120 f   PixProRefImageDlg.obj
 0001:00027150       ?GetMessageMap@CPixProRefImageDlg@@MBEPBUAFX_MSGMAP@@XZ 67da8150 f   PixProRefImageDlg.obj
 0001:00027180       ?GetThisMessageMap@CPixProRefImageDlg@@KGPBUAFX_MSGMAP@@XZ 67da8180 f   PixProRefImageDlg.obj
 0001:00027190       ?OnInitDialog@CPixProRefImageDlg@@MAEHXZ 67da8190 f   PixProRefImageDlg.obj
 0001:00027240       ?OnPixproSdramBank0@CPixProRefImageDlg@@IAEXXZ 67da8240 f   PixProRefImageDlg.obj
 0001:00027260       ?OnPixproSdramBank1@CPixProRefImageDlg@@IAEXXZ 67da8260 f   PixProRefImageDlg.obj
 0001:00027280       ?OnOK@CPixProRefImageDlg@@MAEXXZ 67da8280 f   PixProRefImageDlg.obj
 0001:000272d0       ??_ECPixProRefImageDlg@@UAEPAXI@Z 67da82d0 f i PixProRefImageDlg.obj
 0001:000272d0       ??_GCPixProRefImageDlg@@UAEPAXI@Z 67da82d0 f i PixProRefImageDlg.obj
 0001:00027310       ??0CPixProUflowSubDlg@@QAE@PAVCWnd@@PAUCORPPL_FCT_PROP@@PAVSapPixProParams@@@Z 67da8310 f   PixProUflowSubDlg.obj
 0001:000273a0       ?DoDataExchange@CPixProUflowSubDlg@@MAEXPAVCDataExchange@@@Z 67da83a0 f   PixProUflowSubDlg.obj
 0001:000273d0       ?GetMessageMap@CPixProUflowSubDlg@@MBEPBUAFX_MSGMAP@@XZ 67da83d0 f   PixProUflowSubDlg.obj
 0001:00027400       ?GetThisMessageMap@CPixProUflowSubDlg@@KGPBUAFX_MSGMAP@@XZ 67da8400 f   PixProUflowSubDlg.obj
 0001:00027410       ?OnInitDialog@CPixProUflowSubDlg@@MAEHXZ 67da8410 f   PixProUflowSubDlg.obj
 0001:000274d0       ?OnPixproSdramBank0@CPixProUflowSubDlg@@IAEXXZ 67da84d0 f   PixProUflowSubDlg.obj
 0001:000274f0       ?OnPixproSdramBank1@CPixProUflowSubDlg@@IAEXXZ 67da84f0 f   PixProUflowSubDlg.obj
 0001:00027510       ?OnPixproUflowSub@CPixProUflowSubDlg@@IAEXXZ 67da8510 f   PixProUflowSubDlg.obj
 0001:00027530       ?OnPixproRefImage@CPixProUflowSubDlg@@IAEXXZ 67da8530 f   PixProUflowSubDlg.obj
 0001:00027550       ?OnOK@CPixProUflowSubDlg@@MAEXXZ 67da8550 f   PixProUflowSubDlg.obj
 0001:000275c0       ??_ECPixProUflowSubDlg@@UAEPAXI@Z 67da85c0 f i PixProUflowSubDlg.obj
 0001:000275c0       ??_GCPixProUflowSubDlg@@UAEPAXI@Z 67da85c0 f i PixProUflowSubDlg.obj
 0001:00027600       ??0CPixProWAvgDlg@@QAE@PAVCWnd@@PAUCORPPL_FCT_PROP@@PAVSapPixProParams@@@Z 67da8600 f   PixProWAvgDlg.obj
 0001:000276e0       ?DoDataExchange@CPixProWAvgDlg@@MAEXPAVCDataExchange@@@Z 67da86e0 f   PixProWAvgDlg.obj
 0001:00027730       ?GetMessageMap@CPixProWAvgDlg@@MBEPBUAFX_MSGMAP@@XZ 67da8730 f   PixProWAvgDlg.obj
 0001:00027760       ?GetThisMessageMap@CPixProWAvgDlg@@KGPBUAFX_MSGMAP@@XZ 67da8760 f   PixProWAvgDlg.obj
 0001:00027770       ?OnInitDialog@CPixProWAvgDlg@@MAEHXZ 67da8770 f   PixProWAvgDlg.obj
 0001:000278b0       ?OnPixproSdramBank0@CPixProWAvgDlg@@IAEXXZ 67da88b0 f   PixProWAvgDlg.obj
 0001:000278d0       ?OnPixproSdramBank1@CPixProWAvgDlg@@IAEXXZ 67da88d0 f   PixProWAvgDlg.obj
 0001:000278f0       ?OnPixproWeightedAvg@CPixProWAvgDlg@@IAEXXZ 67da88f0 f   PixProWAvgDlg.obj
 0001:00027910       ?OnPixproRefImage@CPixProWAvgDlg@@IAEXXZ 67da8910 f   PixProWAvgDlg.obj
 0001:00027930       ?OnSelchangeFactor@CPixProWAvgDlg@@IAEXXZ 67da8930 f   PixProWAvgDlg.obj
 0001:00027980       ?OnOK@CPixProWAvgDlg@@MAEXXZ 67da8980 f   PixProWAvgDlg.obj
 0001:00027a10       ??_ECPixProWAvgDlg@@UAEPAXI@Z 67da8a10 f i PixProWAvgDlg.obj
 0001:00027a10       ??_GCPixProWAvgDlg@@UAEPAXI@Z 67da8a10 f i PixProWAvgDlg.obj
 0001:00027a50       ??0CRawFileDlg@@QAE@PAVCWnd@@HHHH@Z 67da8a50 f   RawFileDlg.obj
 0001:00027bb0       ?DoDataExchange@CRawFileDlg@@MAEXPAVCDataExchange@@@Z 67da8bb0 f   RawFileDlg.obj
 0001:00027c40       ?GetMessageMap@CRawFileDlg@@MBEPBUAFX_MSGMAP@@XZ 67da8c40 f   RawFileDlg.obj
 0001:00027c70       ?GetThisMessageMap@CRawFileDlg@@KGPBUAFX_MSGMAP@@XZ 67da8c70 f   RawFileDlg.obj
 0001:00027c80       ?OnOK@CRawFileDlg@@MAEXXZ  67da8c80 f   RawFileDlg.obj
 0001:00027dc0       ?OnInitDialog@CRawFileDlg@@MAEHXZ 67da8dc0 f   RawFileDlg.obj
 0001:00027f30       ?OnSelchangeComboFormat@CRawFileDlg@@IAEXXZ 67da8f30 f   RawFileDlg.obj
 0001:00027f90       ??_GCRawFileDlg@@UAEPAXI@Z 67da8f90 f i RawFileDlg.obj
 0001:00027f90       ??_ECRawFileDlg@@UAEPAXI@Z 67da8f90 f i RawFileDlg.obj
 0001:00027fd0       _ExtRawDllMain@12          67da8fd0 f   SapClassGui.obj
 0001:00028040       ?SapClassGuiInitModule@@YAXXZ 67da9040 f   SapClassGui.obj
 0001:000280e0       _DllMain@12                67da90e0 f   SapClassGui.obj
 0001:000281d0       ??B?$CTypedSimpleList@PAUCRuntimeClass@@@@QAEPAUCRuntimeClass@@XZ 67da91d0 f i SapClassGui.obj
 0001:00028200       ??B?$CTypedSimpleList@PAVCOleObjectFactory@@@@QAEPAVCOleObjectFactory@@XZ 67da9200 f i SapClassGui.obj
 0001:00028230       ??0CTraceFileAndLineInfo@ATL@@QAE@PBDH@Z 67da9230 f i SapClassGui.obj
 0001:00028260       ??RCTraceFileAndLineInfo@ATL@@QBAXPBDZZ 67da9260 f i SapClassGui.obj
 0001:000282c0       ?TraceV@CTrace@ATL@@QBAXPBDHKI0PAD@Z 67da92c0 f i SapClassGui.obj
 0001:00028300       ??BCTraceCategory@ATL@@QBEKXZ 67da9300 f i SapClassGui.obj
 0001:00028320       ?GetHead@CSimpleList@@QBEPAXXZ 67da9320 f i SapClassGui.obj
 0001:00028340       ?_AfxInitManaged@@YAHXZ    67da9340 f i SapClassGui.obj
 0001:00028350       ??0CImageWnd@@QAE@ABV0@@Z  67da9350 f i SapClassGui.obj
 0001:00028440       ??4CImageWnd@@QAEAAV0@ABV0@@Z 67da9440 f i SapClassGui.obj
 0001:00028520       ??_GCImageWnd@@UAEPAXI@Z   67da9520 f i SapClassGui.obj
 0001:00028560       ??0CSapRectTracker@@QAE@ABV0@@Z 67da9560 f i SapClassGui.obj
 0001:000285c0       ??4CSapRectTracker@@QAEAAV0@ABV0@@Z 67da95c0 f i SapClassGui.obj
 0001:00028610       ??0CRectTracker@@QAE@ABV0@@Z 67da9610 f i SapClassGui.obj
 0001:000286e0       ??4CRectTracker@@QAEAAV0@ABV0@@Z 67da96e0 f i SapClassGui.obj
 0001:000287a0       ??_GCRectTracker@@UAEPAXI@Z 67da97a0 f i SapClassGui.obj
 0001:000287a0       ??_ECRectTracker@@UAEPAXI@Z 67da97a0 f i SapClassGui.obj
 0001:000287e0       ?GetBuffer@CBufDlg@@QAEAAVSapBuffer@@XZ 67da97e0 f i SapClassGui.obj
 0001:00028800       ?GetServerCategory@CAcqConfigDlg@@QAE?AW4ServerCategory@1@XZ 67da9800 f i SapClassGui.obj
 0001:00028820       ?SetCameraLinkServerFlag@CAcqConfigDlg@@QAEX_N@Z 67da9820 f i SapClassGui.obj
 0001:00028840       ?GetAcquisition@CAcqConfigDlg@@QAEAAVSapAcquisition@@XZ 67da9840 f i SapClassGui.obj
 0001:00028860       ??1CViewDlg@@UAE@XZ        67da9860 f i SapClassGui.obj
 0001:00028900       ??_FCViewDlg@@QAEXXZ       67da9900 f i SapClassGui.obj
 0001:00028930       ?GetType@CLoadSaveDlg@@QAEHXZ 67da9930 f i SapClassGui.obj
 0001:00028950       ?GetOptions@CLoadSaveDlg@@QAE?AV?$CStringT@DV?$StrTraitMFC_DLL@DV?$ChTraitsCRT@D@ATL@@@@@ATL@@XZ 67da9950 f i SapClassGui.obj
 0001:000289b0       ?GetStartFrame@CLoadSaveDlg@@QAEHXZ 67da99b0 f i SapClassGui.obj
 0001:000289d0       ?GetRawFileWidth@CLoadSaveDlg@@QAEHXZ 67da99d0 f i SapClassGui.obj
 0001:000289f0       ?GetRawFileHeight@CLoadSaveDlg@@QAEHXZ 67da99f0 f i SapClassGui.obj
 0001:00028a10       ?GetRawFileOffset@CLoadSaveDlg@@QAEHXZ 67da9a10 f i SapClassGui.obj
 0001:00028a30       ?GetRawFileFormat@CLoadSaveDlg@@QAEHXZ 67da9a30 f i SapClassGui.obj
 0001:00028a50       ?GetCab@CCabDlg@@QAEAAVSapCab@@XZ 67da9a50 f i SapClassGui.obj
 0001:00028a70       ?GetAcquisition@CCamVicDlg@@QAEAAVSapAcquisition@@XZ 67da9a70 f i SapClassGui.obj
 0001:00028a90       ?GetPixPro@CPixProDlg@@QAEAAVSapPixPro@@XZ 67da9a90 f i SapClassGui.obj
 0001:00028ab0       ??0Thank_you@Define_the_symbol__ATL_MIXED@@QAE@XZ 67da9ab0 f i SapClassGui.obj
 0001:00028ad0       ?one@Thank_you@Define_the_symbol__ATL_MIXED@@UAEXXZ 67da9ad0 f i SapClassGui.obj
 0001:00028af0       ??0CTiffFileDlg@@QAE@PAVCWnd@@HH@Z 67da9af0 f   TiffFileDlg.obj
 0001:00028bf0       ?DoDataExchange@CTiffFileDlg@@MAEXPAVCDataExchange@@@Z 67da9bf0 f   TiffFileDlg.obj
 0001:00028c60       ?GetMessageMap@CTiffFileDlg@@MBEPBUAFX_MSGMAP@@XZ 67da9c60 f   TiffFileDlg.obj
 0001:00028c90       ?GetThisMessageMap@CTiffFileDlg@@KGPBUAFX_MSGMAP@@XZ 67da9c90 f   TiffFileDlg.obj
 0001:00028ca0       ?OnVScroll@CTiffFileDlg@@IAEXIIPAVCScrollBar@@@Z 67da9ca0 f   TiffFileDlg.obj
 0001:00028d50       ?OnUpdateTiffEditCompressionLevel@CTiffFileDlg@@IAEXXZ 67da9d50 f   TiffFileDlg.obj
 0001:00028d80       ?OnOK@CTiffFileDlg@@MAEXXZ 67da9d80 f   TiffFileDlg.obj
 0001:00028e20       ??_ECTiffFileDlg@@UAEPAXI@Z 67da9e20 f i TiffFileDlg.obj
 0001:00028e20       ??_GCTiffFileDlg@@UAEPAXI@Z 67da9e20 f i TiffFileDlg.obj
 0001:00028e60       ?DoDataExchange@CViewDlg@@MAEXPAVCDataExchange@@@Z 67da9e60 f   ViewDlg.obj
 0001:00029020       ?GetMessageMap@CViewDlg@@MBEPBUAFX_MSGMAP@@XZ 67daa020 f   ViewDlg.obj
 0001:00029050       ?GetThisMessageMap@CViewDlg@@KGPBUAFX_MSGMAP@@XZ 67daa050 f   ViewDlg.obj
 0001:00029060       ??0CViewDlg@@QAE@PAVCWnd@@PAVSapView@@@Z 67daa060 f   ViewDlg.obj
 0001:000293b0       ?OnInitDialog@CViewDlg@@MAEHXZ 67daa3b0 f   ViewDlg.obj
 0001:000294d0       ?LoadSettings@CViewDlg@@IAEXXZ 67daa4d0 f   ViewDlg.obj
 0001:00029530       ?SaveSettings@CViewDlg@@IAEXXZ 67daa530 f   ViewDlg.obj
 0001:00029590       ?OnUpdateEditViewRange@CViewDlg@@IAEXXZ 67daa590 f   ViewDlg.obj
 0001:00029620       ?OnHScroll@CViewDlg@@IAEXIIPAVCScrollBar@@@Z 67daa620 f   ViewDlg.obj
 0001:00029710       ?SetRange@CViewDlg@@IAEXXZ 67daa710 f   ViewDlg.obj
 0001:00029790       ?OnUpdateScaleHeight@CViewDlg@@IAEXXZ 67daa790 f   ViewDlg.obj
 0001:000298d0       ?OnUpdateScaleHeightFactor@CViewDlg@@IAEXXZ 67daa8d0 f   ViewDlg.obj
 0001:00029a30       ?OnUpdateScaleWidth@CViewDlg@@IAEXXZ 67daaa30 f   ViewDlg.obj
 0001:00029b70       ?OnUpdateScaleWidthFactor@CViewDlg@@IAEXXZ 67daab70 f   ViewDlg.obj
 0001:00029cd0       ?OnDeltaposSpinScaleHeight@CViewDlg@@IAEXPAUtagNMHDR@@PAJ@Z 67daacd0 f   ViewDlg.obj
 0001:00029e70       ?OnDeltaposSpinScaleHeightFactor@CViewDlg@@IAEXPAUtagNMHDR@@PAJ@Z 67daae70 f   ViewDlg.obj
 0001:0002a040       ?OnDeltaposSpinScaleWidth@CViewDlg@@IAEXPAUtagNMHDR@@PAJ@Z 67dab040 f   ViewDlg.obj
 0001:0002a1e0       ?OnDeltaposSpinScaleWidthFactor@CViewDlg@@IAEXPAUtagNMHDR@@PAJ@Z 67dab1e0 f   ViewDlg.obj
 0001:0002a3b0       ?OnLockAspectRatio@CViewDlg@@IAEXXZ 67dab3b0 f   ViewDlg.obj
 0001:0002a4a0       ?OnScalingNone@CViewDlg@@IAEXXZ 67dab4a0 f   ViewDlg.obj
 0001:0002a5f0       ?OnScalingFitToWindow@CViewDlg@@IAEXXZ 67dab5f0 f   ViewDlg.obj
 0001:0002a940       ?OnOK@CViewDlg@@MAEXXZ     67dab940 f   ViewDlg.obj
 0001:0002a9e0       ?OnCancel@CViewDlg@@MAEXXZ 67dab9e0 f   ViewDlg.obj
 0001:0002aa20       ?floor@@YAMM@Z             67daba20 f i ViewDlg.obj
 0001:0002aa40       _floorf                    67daba40 f i ViewDlg.obj
 0001:0002aa80       ??_GCViewDlg@@UAEPAXI@Z    67daba80 f i ViewDlg.obj
 0001:0002aac0       ??_ECViewDlg@@UAEPAXI@Z    67dabac0 f i ViewDlg.obj
 0001:0002ab3c       _CorAcqGetCap@12           67dabb3c f   Corapi:CORAPI.dll
 0001:0002ab42       _CorCabSetPrm@12           67dabb42 f   Corapi:CORAPI.dll
 0001:0002ab48       ??1SapAcquisition@@UAE@XZ  67dabb48 f   SapClassBasic:SapClassBasic80.dll
 0001:0002ab4e       ??1SapManager@@UAE@XZ      67dabb4e f   SapClassBasic:SapClassBasic80.dll
 0001:0002ab54       ??0SapAcquisition@@QAE@VSapLocation@@@Z 67dabb54 f   SapClassBasic:SapClassBasic80.dll
 0001:0002ab5a       ??0SapLocation@@QAE@HH@Z   67dabb5a f   SapClassBasic:SapClassBasic80.dll
 0001:0002ab60       ??0SapManager@@QAE@XZ      67dabb60 f   SapClassBasic:SapClassBasic80.dll
 0001:0002ab66       ??1SapLocation@@UAE@XZ     67dabb66 f   SapClassBasic:SapClassBasic80.dll
 0001:0002ab6c       ?GetResourceIndex@SapLocation@@QBEHXZ 67dabb6c f   SapClassBasic:SapClassBasic80.dll
 0001:0002ab72       ?GetServerName@SapManager@@SAHVSapLocation@@PADH@Z 67dabb72 f   SapClassBasic:SapClassBasic80.dll
 0001:0002ab78       ??0SapLocation@@QAE@ABV0@@Z 67dabb78 f   SapClassBasic:SapClassBasic80.dll
 0001:0002ab7e       ?GetConfigFile@SapAcquisition@@QBEPBDXZ 67dabb7e f   SapClassBasic:SapClassBasic80.dll
 0001:0002ab84       ?GetLocation@SapXferNode@@QBE?AVSapLocation@@XZ 67dabb84 f   SapClassBasic:SapClassBasic80.dll
 0001:0002ab8a       ??4SapAcquisition@@QAEAAV0@ABV0@@Z 67dabb8a f   SapClassBasic:SapClassBasic80.dll
 0001:0002ab90       ??0SapLocation@@QAE@PBDH@Z 67dabb90 f   SapClassBasic:SapClassBasic80.dll
 0001:0002ab96       ?SetLocation@SapXferNode@@QAEHVSapLocation@@@Z 67dabb96 f   SapClassBasic:SapClassBasic80.dll
 0001:0002ab9c       ?GetServerName@SapManager@@SAHHPADH@Z 67dabb9c f   SapClassBasic:SapClassBasic80.dll
 0001:0002aba2       ?GetResourceCount@SapManager@@SAHHH@Z 67dabba2 f   SapClassBasic:SapClassBasic80.dll
 0001:0002aba8       ?GetServerCount@SapManager@@SAHXZ 67dabba8 f   SapClassBasic:SapClassBasic80.dll
 0001:0002abae       ?IsResourceAvailable@SapManager@@SAHPBDHH@Z 67dabbae f   SapClassBasic:SapClassBasic80.dll
 0001:0002abb4       ?GetResourceName@SapManager@@SAHPBDHHPADH@Z 67dabbb4 f   SapClassBasic:SapClassBasic80.dll
 0001:0002abba       ?GetResourceCount@SapManager@@SAHPBDH@Z 67dabbba f   SapClassBasic:SapClassBasic80.dll
 0001:0002abc0       ?GetServerIndex@SapManager@@SAHPBD@Z 67dabbc0 f   SapClassBasic:SapClassBasic80.dll
 0001:0002abc6       ?GetResourceCount@SapManager@@SAHVSapLocation@@H@Z 67dabbc6 f   SapClassBasic:SapClassBasic80.dll
 0001:0002abcc       ?DisplayStatus@SapManager@@SAIPBDI@Z 67dabbcc f   SapClassBasic:SapClassBasic80.dll
 0001:0002abd2       ??1SapDataFRGB@@UAE@XZ     67dabbd2 f   SapClassBasic:SapClassBasic80.dll
 0001:0002abd8       ?IsEnabled@SapBayer@@QBEHXZ 67dabbd8 f   SapClassBasic:SapClassBasic80.dll
 0001:0002abde       ?IsLutEnabled@SapBayer@@QBEHXZ 67dabbde f   SapClassBasic:SapClassBasic80.dll
 0001:0002abe4       ?GetGamma@SapBayer@@QBEMXZ 67dabbe4 f   SapClassBasic:SapClassBasic80.dll
 0001:0002abea       ?Blue@SapDataFRGB@@QAEMXZ  67dabbea f   SapClassBasic:SapClassBasic80.dll
 0001:0002abf0       ?Green@SapDataFRGB@@QAEMXZ 67dabbf0 f   SapClassBasic:SapClassBasic80.dll
 0001:0002abf6       ?Red@SapDataFRGB@@QAEMXZ   67dabbf6 f   SapClassBasic:SapClassBasic80.dll
 0001:0002abfc       ?GetWBGain@SapBayer@@QBE?AVSapDataFRGB@@XZ 67dabbfc f   SapClassBasic:SapClassBasic80.dll
 0001:0002ac02       ?GetMethod@SapBayer@@QBEHXZ 67dabc02 f   SapClassBasic:SapClassBasic80.dll
 0001:0002ac08       ?GetAlign@SapBayer@@QBEHXZ 67dabc08 f   SapClassBasic:SapClassBasic80.dll
 0001:0002ac0e       ?GetAvailMethod@SapBayer@@QBEHXZ 67dabc0e f   SapClassBasic:SapClassBasic80.dll
 0001:0002ac14       ?GetAvailAlign@SapBayer@@QBEHXZ 67dabc14 f   SapClassBasic:SapClassBasic80.dll
 0001:0002ac1a       ?IsSoftware@SapBayer@@QBEHXZ 67dabc1a f   SapClassBasic:SapClassBasic80.dll
 0001:0002ac20       ??0SapDataFRGB@@QAE@MMM@Z  67dabc20 f   SapClassBasic:SapClassBasic80.dll
 0001:0002ac26       ??BSapManager@@QBEHXZ      67dabc26 f   SapClassBasic:SapClassBasic80.dll
 0001:0002ac2c       ??1SapBuffer@@UAE@XZ       67dabc2c f   SapClassBasic:SapClassBasic80.dll
 0001:0002ac32       ?IsBufferTypeSupported@SapBuffer@@SAHVSapLocation@@H@Z 67dabc32 f   SapClassBasic:SapClassBasic80.dll
 0001:0002ac38       ??4SapLocation@@QAEAAV0@ABV0@@Z 67dabc38 f   SapClassBasic:SapClassBasic80.dll
 0001:0002ac3e       ?GetSrcNode@SapXferNode@@QBEPAV1@XZ 67dabc3e f   SapClassBasic:SapClassBasic80.dll
 0001:0002ac44       ?GetPixelDepth@SapBuffer@@QBEHXZ 67dabc44 f   SapClassBasic:SapClassBasic80.dll
 0001:0002ac4a       ?GetType@SapBuffer@@QBEHXZ 67dabc4a f   SapClassBasic:SapClassBasic80.dll
 0001:0002ac50       ?GetFormat@SapBuffer@@QBEHXZ 67dabc50 f   SapClassBasic:SapClassBasic80.dll
 0001:0002ac56       ?GetHeight@SapBuffer@@QBEHXZ 67dabc56 f   SapClassBasic:SapClassBasic80.dll
 0001:0002ac5c       ?GetWidth@SapBuffer@@QBEHXZ 67dabc5c f   SapClassBasic:SapClassBasic80.dll
 0001:0002ac62       ??0SapLocation@@QAE@XZ     67dabc62 f   SapClassBasic:SapClassBasic80.dll
 0001:0002ac68       ??0SapBuffer@@QAE@HHHHHVSapLocation@@@Z 67dabc68 f   SapClassBasic:SapClassBasic80.dll
 0001:0002ac6e       ?GetPixelDepthMax@SapManager@@SAHH@Z 67dabc6e f   SapClassBasic:SapClassBasic80.dll
 0001:0002ac74       ?GetPixelDepthMin@SapManager@@SAHH@Z 67dabc74 f   SapClassBasic:SapClassBasic80.dll
 0001:0002ac7a       ??0SapCab@@QAE@VSapLocation@@PAVSapXferNode@@@Z 67dabc7a f   SapClassBasic:SapClassBasic80.dll
 0001:0002ac80       ??0SapLocation@@QAE@ABV0@H@Z 67dabc80 f   SapClassBasic:SapClassBasic80.dll
 0001:0002ac86       ?Create@SapCab@@UAEHXZ     67dabc86 f   SapClassBasic:SapClassBasic80.dll
 0001:0002ac8c       ?Destroy@SapCab@@UAEHXZ    67dabc8c f   SapClassBasic:SapClassBasic80.dll
 0001:0002ac92       ?GetXferParams@SapCab@@UBE?AVSapXferParams@@H@Z 67dabc92 f   SapClassBasic:SapClassBasic80.dll
 0001:0002ac98       ?GetInputXferParams@SapCab@@UBE?AVSapXferParams@@H@Z 67dabc98 f   SapClassBasic:SapClassBasic80.dll
 0001:0002ac9e       ?GetOutputXferParams@SapCab@@UBE?AVSapXferParams@@H@Z 67dabc9e f   SapClassBasic:SapClassBasic80.dll
 0001:0002aca4       ?SetSrcNode@SapXferNode@@UAEHPAV1@H@Z 67dabca4 f   SapClassBasic:SapClassBasic80.dll
 0001:0002acaa       ?SetXferParams@SapCab@@UAEHVSapXferParams@@H@Z 67dabcaa f   SapClassBasic:SapClassBasic80.dll
 0001:0002acb0       ?SetInputXferParams@SapCab@@UAEHVSapXferParams@@H@Z 67dabcb0 f   SapClassBasic:SapClassBasic80.dll
 0001:0002acb6       ?SetOutputXferParams@SapCab@@UAEHVSapXferParams@@H@Z 67dabcb6 f   SapClassBasic:SapClassBasic80.dll
 0001:0002acbc       ?GetHandle@SapXferNode@@UBEPAU__CORHANDLE@@H@Z 67dabcbc f   SapClassBasic:SapClassBasic80.dll
 0001:0002acc2       ?GetHandle@SapXferNode@@UBEPAU__CORHANDLE@@XZ 67dabcc2 f   SapClassBasic:SapClassBasic80.dll
 0001:0002acc8       ?GetXferParamsFromSrcNode@SapXferNode@@UAEXXZ 67dabcc8 f   SapClassBasic:SapClassBasic80.dll
 0001:0002acce       ?GetXferNodeType@SapCab@@UAE?AW4XferNodeType@SapXferNode@@XZ 67dabcce f   SapClassBasic:SapClassBasic80.dll
 0001:0002acd4       ?IsBuffer@SapXferNode@@UAEHXZ 67dabcd4 f   SapClassBasic:SapClassBasic80.dll
 0001:0002acda       ??ASapXferNode@@UBEPAU__CORHANDLE@@H@Z 67dabcda f   SapClassBasic:SapClassBasic80.dll
 0001:0002ace0       ?GetCount@SapXferNode@@UBEHXZ 67dabce0 f   SapClassBasic:SapClassBasic80.dll
 0001:0002ace6       ?GetIndex@SapXferNode@@UBEHXZ 67dabce6 f   SapClassBasic:SapClassBasic80.dll
 0001:0002acec       ?SetIndex@SapXferNode@@UAEHH@Z 67dabcec f   SapClassBasic:SapClassBasic80.dll
 0001:0002acf2       ?ResetIndex@SapXferNode@@UAEXXZ 67dabcf2 f   SapClassBasic:SapClassBasic80.dll
 0001:0002acf8       ?Next@SapXferNode@@UAEXXZ  67dabcf8 f   SapClassBasic:SapClassBasic80.dll
 0001:0002acfe       ?GetTrash@SapXferNode@@UBEPAU__CORHANDLE@@XZ 67dabcfe f   SapClassBasic:SapClassBasic80.dll
 0001:0002ad04       ?Empty@SapXferNode@@UAEHH@Z 67dabd04 f   SapClassBasic:SapClassBasic80.dll
 0001:0002ad0a       ?Empty@SapXferNode@@UAEHXZ 67dabd0a f   SapClassBasic:SapClassBasic80.dll
 0001:0002ad10       ?EmptyAll@SapXferNode@@UAEHXZ 67dabd10 f   SapClassBasic:SapClassBasic80.dll
 0001:0002ad16       ?GetCapability@SapCab@@UAEHHPAX@Z 67dabd16 f   SapClassBasic:SapClassBasic80.dll
 0001:0002ad1c       ?GetParameter@SapCab@@UAEHHPAX@Z 67dabd1c f   SapClassBasic:SapClassBasic80.dll
 0001:0002ad22       ?SetParameter@SapCab@@UAEHHPAX@Z 67dabd22 f   SapClassBasic:SapClassBasic80.dll
 0001:0002ad28       ?SetParameter@SapCab@@UAEHHH@Z 67dabd28 f   SapClassBasic:SapClassBasic80.dll
 0001:0002ad2e       ?Construct@SapCab@@MAEXHHPBH@Z 67dabd2e f   SapClassBasic:SapClassBasic80.dll
 0001:0002ad34       ??1SapCab@@UAE@XZ          67dabd34 f   SapClassBasic:SapClassBasic80.dll
 0001:0002ad3a       ?GetVicFile@SapAcquisition@@QBEPBDXZ 67dabd3a f   SapClassBasic:SapClassBasic80.dll
 0001:0002ad40       ?GetCamFile@SapAcquisition@@QBEPBDXZ 67dabd40 f   SapClassBasic:SapClassBasic80.dll
 0001:0002ad46       ?IsEnabled@SapColorConversion@@QBEHXZ 67dabd46 f   SapClassBasic:SapClassBasic80.dll
 0001:0002ad4c       ?IsLutEnabled@SapColorConversion@@QBEHXZ 67dabd4c f   SapClassBasic:SapClassBasic80.dll
 0001:0002ad52       ?GetGamma@SapColorConversion@@QBEMXZ 67dabd52 f   SapClassBasic:SapClassBasic80.dll
 0001:0002ad58       ?GetWBGain@SapColorConversion@@QBE?AVSapDataFRGB@@XZ 67dabd58 f   SapClassBasic:SapClassBasic80.dll
 0001:0002ad5e       ?GetMethod@SapColorConversion@@QBEHXZ 67dabd5e f   SapClassBasic:SapClassBasic80.dll
 0001:0002ad64       ?GetAlign@SapColorConversion@@QBEHXZ 67dabd64 f   SapClassBasic:SapClassBasic80.dll
 0001:0002ad6a       ?GetAvailMethod@SapColorConversion@@QBEHXZ 67dabd6a f   SapClassBasic:SapClassBasic80.dll
 0001:0002ad70       ?GetAvailAlign@SapColorConversion@@QBEHXZ 67dabd70 f   SapClassBasic:SapClassBasic80.dll
 0001:0002ad76       ?IsHardwareEnabled@SapColorConversion@@QBEHXZ 67dabd76 f   SapClassBasic:SapClassBasic80.dll
 0001:0002ad7c       ?Destroy@SapFeature@@UAEHXZ 67dabd7c f   SapClassBasic:SapClassBasic80.dll
 0001:0002ad82       ?GetDisplayName@SapFeature@@QAEHPADH@Z 67dabd82 f   SapClassBasic:SapClassBasic80.dll
 0001:0002ad88       ?GetFeatureInfo@SapAcqDevice@@QAEHPBDPAVSapFeature@@@Z 67dabd88 f   SapClassBasic:SapClassBasic80.dll
 0001:0002ad8e       ?GetFileNameByIndex@SapAcqDevice@@QAEHHPADH@Z 67dabd8e f   SapClassBasic:SapClassBasic80.dll
 0001:0002ad94       ?GetFileCount@SapAcqDevice@@QAEHPAH@Z 67dabd94 f   SapClassBasic:SapClassBasic80.dll
 0001:0002ad9a       ??1SapFeature@@UAE@XZ      67dabd9a f   SapClassBasic:SapClassBasic80.dll
 0001:0002ada0       ?GetFeatureValue@SapAcqDevice@@QAEHPBDPADH@Z 67dabda0 f   SapClassBasic:SapClassBasic80.dll
 0001:0002ada6       ?IsFeatureAvailable@SapAcqDevice@@QAEHPBDPAH@Z 67dabda6 f   SapClassBasic:SapClassBasic80.dll
 0001:0002adac       ?Create@SapFeature@@UAEHXZ 67dabdac f   SapClassBasic:SapClassBasic80.dll
 0001:0002adb2       ??0SapFeature@@QAE@VSapLocation@@@Z 67dabdb2 f   SapClassBasic:SapClassBasic80.dll
 0001:0002adb8       ?GetAcqDevice@SapFlatField@@QBEPAVSapAcqDevice@@XZ 67dabdb8 f   SapClassBasic:SapClassBasic80.dll
 0001:0002adbe       ?GetNumFlatField@SapFlatField@@QBEHXZ 67dabdbe f   SapClassBasic:SapClassBasic80.dll
 0001:0002adc4       ?GetBlackPixelPercentage@SapFlatField@@QBEMXZ 67dabdc4 f   SapClassBasic:SapClassBasic80.dll
 0001:0002adca       ?IsClippedGainOffsetDefects@SapFlatField@@QBEHXZ 67dabdca f   SapClassBasic:SapClassBasic80.dll
 0001:0002add0       ?GetIndex@SapFlatField@@QBEHXZ 67dabdd0 f   SapClassBasic:SapClassBasic80.dll
 0001:0002add6       ?GetDeviationMaxWhite@SapFlatField@@QBEHXZ 67dabdd6 f   SapClassBasic:SapClassBasic80.dll
 0001:0002addc       ?GetDeviationMaxBlack@SapFlatField@@QBEHXZ 67dabddc f   SapClassBasic:SapClassBasic80.dll
 0001:0002ade2       ?GetGainDivisor@SapFlatField@@QBEHXZ 67dabde2 f   SapClassBasic:SapClassBasic80.dll
 0001:0002ade8       ?GetVerticalOffset@SapFlatField@@QBEHXZ 67dabde8 f   SapClassBasic:SapClassBasic80.dll
 0001:0002adee       ?GetNumFramesAverage@SapFlatField@@QBEHXZ 67dabdee f   SapClassBasic:SapClassBasic80.dll
 0001:0002adf4       ?GetNumLinesAverage@SapFlatField@@QBEHXZ 67dabdf4 f   SapClassBasic:SapClassBasic80.dll
 0001:0002adfa       ?GetVideoType@SapFlatField@@QBE?AW4VideoType@SapAcquisition@@XZ 67dabdfa f   SapClassBasic:SapClassBasic80.dll
 0001:0002ae00       ?GetCorrectionType@SapFlatField@@QBE?AW4CorrectionType@1@XZ 67dabe00 f   SapClassBasic:SapClassBasic80.dll
 0001:0002ae06       ?GetOffsetMinMax@SapFlatField@@QAEXPAH0@Z 67dabe06 f   SapClassBasic:SapClassBasic80.dll
 0001:0002ae0c       ?Load@SapBuffer@@UAEHPBD0HH@Z 67dabe0c f   SapClassBasic:SapClassBasic80.dll
 0001:0002ae12       ?Create@SapBuffer@@UAEHXZ  67dabe12 f   SapClassBasic:SapClassBasic80.dll
 0001:0002ae18       ??0SapBuffer@@QAE@PBDHVSapLocation@@@Z 67dabe18 f   SapClassBasic:SapClassBasic80.dll
 0001:0002ae1e       ??0SapBuffer@@QAE@HPAVSapXferNode@@HVSapLocation@@@Z 67dabe1e f   SapClassBasic:SapClassBasic80.dll
 0001:0002ae24       ?Destroy@SapBuffer@@UAEHXZ 67dabe24 f   SapClassBasic:SapClassBasic80.dll
 0001:0002ae2a       ?GetXferParams@SapXferNode@@UBE?AVSapXferParams@@H@Z 67dabe2a f   SapClassBasic:SapClassBasic80.dll
 0001:0002ae30       ?GetInputXferParams@SapXferNode@@UBE?AVSapXferParams@@H@Z 67dabe30 f   SapClassBasic:SapClassBasic80.dll
 0001:0002ae36       ?GetOutputXferParams@SapXferNode@@UBE?AVSapXferParams@@H@Z 67dabe36 f   SapClassBasic:SapClassBasic80.dll
 0001:0002ae3c       ?SetXferParams@SapXferNode@@UAEHVSapXferParams@@H@Z 67dabe3c f   SapClassBasic:SapClassBasic80.dll
 0001:0002ae42       ?SetInputXferParams@SapXferNode@@UAEHVSapXferParams@@H@Z 67dabe42 f   SapClassBasic:SapClassBasic80.dll
 0001:0002ae48       ?SetOutputXferParams@SapXferNode@@UAEHVSapXferParams@@H@Z 67dabe48 f   SapClassBasic:SapClassBasic80.dll
 0001:0002ae4e       ?GetHandle@SapBuffer@@UBEPAU__CORHANDLE@@H@Z 67dabe4e f   SapClassBasic:SapClassBasic80.dll
 0001:0002ae54       ?GetHandle@SapBuffer@@UBEPAU__CORHANDLE@@XZ 67dabe54 f   SapClassBasic:SapClassBasic80.dll
 0001:0002ae5a       ?GetXferNodeType@SapBuffer@@UAE?AW4XferNodeType@SapXferNode@@XZ 67dabe5a f   SapClassBasic:SapClassBasic80.dll
 0001:0002ae60       ??ASapBuffer@@UBEPAU__CORHANDLE@@H@Z 67dabe60 f   SapClassBasic:SapClassBasic80.dll
 0001:0002ae66       ?GetCount@SapBuffer@@UBEHXZ 67dabe66 f   SapClassBasic:SapClassBasic80.dll
 0001:0002ae6c       ?GetIndex@SapBuffer@@UBEHXZ 67dabe6c f   SapClassBasic:SapClassBasic80.dll
 0001:0002ae72       ?SetIndex@SapBuffer@@UAEHH@Z 67dabe72 f   SapClassBasic:SapClassBasic80.dll
 0001:0002ae78       ?ResetIndex@SapBuffer@@UAEXXZ 67dabe78 f   SapClassBasic:SapClassBasic80.dll
 0001:0002ae7e       ?Next@SapBuffer@@UAEXXZ    67dabe7e f   SapClassBasic:SapClassBasic80.dll
 0001:0002ae84       ?GetTrash@SapBuffer@@UBEPAU__CORHANDLE@@XZ 67dabe84 f   SapClassBasic:SapClassBasic80.dll
 0001:0002ae8a       ?Empty@SapBuffer@@UAEHH@Z  67dabe8a f   SapClassBasic:SapClassBasic80.dll
 0001:0002ae90       ?Empty@SapBuffer@@UAEHXZ   67dabe90 f   SapClassBasic:SapClassBasic80.dll
 0001:0002ae96       ?EmptyAll@SapBuffer@@UAEHXZ 67dabe96 f   SapClassBasic:SapClassBasic80.dll
 0001:0002ae9c       ?SetCount@SapBuffer@@UAEHH@Z 67dabe9c f   SapClassBasic:SapClassBasic80.dll
 0001:0002aea2       ?SetWidth@SapBuffer@@UAEHH@Z 67dabea2 f   SapClassBasic:SapClassBasic80.dll
 0001:0002aea8       ?SetHeight@SapBuffer@@UAEHH@Z 67dabea8 f   SapClassBasic:SapClassBasic80.dll
 0001:0002aeae       ?SetFormat@SapBuffer@@UAEHH@Z 67dabeae f   SapClassBasic:SapClassBasic80.dll
 0001:0002aeb4       ?SetType@SapBuffer@@UAEHH@Z 67dabeb4 f   SapClassBasic:SapClassBasic80.dll
 0001:0002aeba       ?SetPixelDepth@SapBuffer@@UAEHH@Z 67dabeba f   SapClassBasic:SapClassBasic80.dll
 0001:0002aec0       ?SetVirtualAddress@SapBuffer@@UAEHQAPAX@Z 67dabec0 f   SapClassBasic:SapClassBasic80.dll
 0001:0002aec6       ?SetPhysicalAddress@SapBuffer@@UAEHQAK@Z 67dabec6 f   SapClassBasic:SapClassBasic80.dll
 0001:0002aecc       ?SetParameters@SapBuffer@@UAEHHQAKHHHH@Z 67dabecc f   SapClassBasic:SapClassBasic80.dll
 0001:0002aed2       ?SetParameters@SapBuffer@@UAEHHQAPAXHHHH@Z 67dabed2 f   SapClassBasic:SapClassBasic80.dll
 0001:0002aed8       ?SetParameters@SapBuffer@@UAEHHHHHH@Z 67dabed8 f   SapClassBasic:SapClassBasic80.dll
 0001:0002aede       ?SetParametersFromFile@SapBuffer@@UAEHPBDH@Z 67dabede f   SapClassBasic:SapClassBasic80.dll
 0001:0002aee4       ?SetFrameRate@SapBuffer@@UAEXM@Z 67dabee4 f   SapClassBasic:SapClassBasic80.dll
 0001:0002aeea       ?GetAddress@SapBuffer@@UAEHH_KIPAXPAPAX@Z 67dabeea f   SapClassBasic:SapClassBasic80.dll
 0001:0002aef0       ?GetAddress@SapBuffer@@UAEHH_KIPAPAX@Z 67dabef0 f   SapClassBasic:SapClassBasic80.dll
 0001:0002aef6       ?GetAddress@SapBuffer@@UAEH_KIPAXPAPAX@Z 67dabef6 f   SapClassBasic:SapClassBasic80.dll
 0001:0002aefc       ?GetAddress@SapBuffer@@UAEH_KIPAPAX@Z 67dabefc f   SapClassBasic:SapClassBasic80.dll
 0001:0002af02       ?GetAddress@SapBuffer@@UAEHHPAXPAPAX@Z 67dabf02 f   SapClassBasic:SapClassBasic80.dll
 0001:0002af08       ?GetAddress@SapBuffer@@UAEHHPAPAX@Z 67dabf08 f   SapClassBasic:SapClassBasic80.dll
 0001:0002af0e       ?GetAddress@SapBuffer@@UAEHPAXPAPAX@Z 67dabf0e f   SapClassBasic:SapClassBasic80.dll
 0001:0002af14       ?GetAddress@SapBuffer@@UAEHPAPAX@Z 67dabf14 f   SapClassBasic:SapClassBasic80.dll
 0001:0002af1a       ?ReleaseAddress@SapBuffer@@UAEHHPAX@Z 67dabf1a f   SapClassBasic:SapClassBasic80.dll
 0001:0002af20       ?ReleaseAddress@SapBuffer@@UAEHPAX@Z 67dabf20 f   SapClassBasic:SapClassBasic80.dll
 0001:0002af26       ?IsMapped@SapBuffer@@UAEHXZ 67dabf26 f   SapClassBasic:SapClassBasic80.dll
 0001:0002af2c       ?IsMapped@SapBuffer@@UAEHH@Z 67dabf2c f   SapClassBasic:SapClassBasic80.dll
 0001:0002af32       ?GetCounterStamp@SapBuffer@@UAEHHPAH@Z 67dabf32 f   SapClassBasic:SapClassBasic80.dll
 0001:0002af38       ?GetCounterStamp@SapBuffer@@UAEHPAH@Z 67dabf38 f   SapClassBasic:SapClassBasic80.dll
 0001:0002af3e       ?GetHostCounterStamp@SapBuffer@@UAEHHPA_K@Z 67dabf3e f   SapClassBasic:SapClassBasic80.dll
 0001:0002af44       ?GetHostCounterStamp@SapBuffer@@UAEHPA_K@Z 67dabf44 f   SapClassBasic:SapClassBasic80.dll
 0001:0002af4a       ?GetSpaceUsed@SapBuffer@@UAEHHPAH@Z 67dabf4a f   SapClassBasic:SapClassBasic80.dll
 0001:0002af50       ?GetSpaceUsed@SapBuffer@@UAEHPAH@Z 67dabf50 f   SapClassBasic:SapClassBasic80.dll
 0001:0002af56       ?GetHandles@SapBuffer@@UBEPAPAU__CORHANDLE@@XZ 67dabf56 f   SapClassBasic:SapClassBasic80.dll
 0001:0002af5c       ?IsCapabilityValid@SapBuffer@@UAEHH@Z 67dabf5c f   SapClassBasic:SapClassBasic80.dll
 0001:0002af62       ?GetCapability@SapBuffer@@UAEHHHPAX@Z 67dabf62 f   SapClassBasic:SapClassBasic80.dll
 0001:0002af68       ?GetCapability@SapBuffer@@UAEHHPAX@Z 67dabf68 f   SapClassBasic:SapClassBasic80.dll
 0001:0002af6e       ?IsParameterValid@SapBuffer@@UAEHH@Z 67dabf6e f   SapClassBasic:SapClassBasic80.dll
 0001:0002af74       ?GetParameter@SapBuffer@@UAEHHHPAX@Z 67dabf74 f   SapClassBasic:SapClassBasic80.dll
 0001:0002af7a       ?GetParameter@SapBuffer@@UAEHHPAX@Z 67dabf7a f   SapClassBasic:SapClassBasic80.dll
 0001:0002af80       ?SetParameter@SapBuffer@@UAEHHHPAX@Z 67dabf80 f   SapClassBasic:SapClassBasic80.dll
 0001:0002af86       ?SetParameter@SapBuffer@@UAEHHPAX@Z 67dabf86 f   SapClassBasic:SapClassBasic80.dll
 0001:0002af8c       ?SetParameter@SapBuffer@@UAEHHHH@Z 67dabf8c f   SapClassBasic:SapClassBasic80.dll
 0001:0002af92       ?SetParameter@SapBuffer@@UAEHHH@Z 67dabf92 f   SapClassBasic:SapClassBasic80.dll
 0001:0002af98       ?GetParent@SapBuffer@@UAEPAV1@XZ 67dabf98 f   SapClassBasic:SapClassBasic80.dll
 0001:0002af9e       ?GetRoot@SapBuffer@@UAEPAV1@XZ 67dabf9e f   SapClassBasic:SapClassBasic80.dll
 0001:0002afa4       ?SetState@SapBuffer@@UAEHHH@Z 67dabfa4 f   SapClassBasic:SapClassBasic80.dll
 0001:0002afaa       ?SetState@SapBuffer@@UAEHH@Z 67dabfaa f   SapClassBasic:SapClassBasic80.dll
 0001:0002afb0       ?SetAllState@SapBuffer@@UAEHH@Z 67dabfb0 f   SapClassBasic:SapClassBasic80.dll
 0001:0002afb6       ?GetState@SapBuffer@@UAEHHPAH@Z 67dabfb6 f   SapClassBasic:SapClassBasic80.dll
 0001:0002afbc       ?GetState@SapBuffer@@UAEHPAH@Z 67dabfbc f   SapClassBasic:SapClassBasic80.dll
 0001:0002afc2       ?SetPage@SapBuffer@@UAEHHH@Z 67dabfc2 f   SapClassBasic:SapClassBasic80.dll
 0001:0002afc8       ?SetPage@SapBuffer@@UAEHH@Z 67dabfc8 f   SapClassBasic:SapClassBasic80.dll
 0001:0002afce       ?SetAllPage@SapBuffer@@UAEHH@Z 67dabfce f   SapClassBasic:SapClassBasic80.dll
 0001:0002afd4       ?GetPage@SapBuffer@@UAEHHPAH@Z 67dabfd4 f   SapClassBasic:SapClassBasic80.dll
 0001:0002afda       ?GetPage@SapBuffer@@UAEHPAH@Z 67dabfda f   SapClassBasic:SapClassBasic80.dll
 0001:0002afe0       ?Clear@SapBuffer@@UAEHHVSapData@@@Z 67dabfe0 f   SapClassBasic:SapClassBasic80.dll
 0001:0002afe6       ?Clear@SapBuffer@@UAEHVSapData@@@Z 67dabfe6 f   SapClassBasic:SapClassBasic80.dll
 0001:0002afec       ?Clear@SapBuffer@@UAEHH@Z  67dabfec f   SapClassBasic:SapClassBasic80.dll
 0001:0002aff2       ?Clear@SapBuffer@@UAEHXZ   67dabff2 f   SapClassBasic:SapClassBasic80.dll
 0001:0002aff8       ?Load@SapBuffer@@UAEHPBDHHH0@Z 67dabff8 f   SapClassBasic:SapClassBasic80.dll
 0001:0002affe       ?Save@SapBuffer@@UAEHPBD0HH@Z 67dabffe f   SapClassBasic:SapClassBasic80.dll
 0001:0002b004       ?Read@SapBuffer@@UAEHH_KHPAX@Z 67dac004 f   SapClassBasic:SapClassBasic80.dll
 0001:0002b00a       ?Read@SapBuffer@@UAEH_KHPAX@Z 67dac00a f   SapClassBasic:SapClassBasic80.dll
 0001:0002b010       ?ReadElement@SapBuffer@@UAEHHHPAH00@Z 67dac010 f   SapClassBasic:SapClassBasic80.dll
 0001:0002b016       ?ReadElement@SapBuffer@@UAEHHHHPAVSapData@@@Z 67dac016 f   SapClassBasic:SapClassBasic80.dll
 0001:0002b01c       ?ReadElement@SapBuffer@@UAEHHHPAVSapData@@@Z 67dac01c f   SapClassBasic:SapClassBasic80.dll
 0001:0002b022       ?ReadElement@SapBuffer@@UAEHHHHPAX@Z 67dac022 f   SapClassBasic:SapClassBasic80.dll
 0001:0002b028       ?ReadElement@SapBuffer@@UAEHHHPAX@Z 67dac028 f   SapClassBasic:SapClassBasic80.dll
 0001:0002b02e       ?ReadLine@SapBuffer@@UAEHHHHHHPAXPAH@Z 67dac02e f   SapClassBasic:SapClassBasic80.dll
 0001:0002b034       ?ReadLine@SapBuffer@@UAEHHHHHPAXPAH@Z 67dac034 f   SapClassBasic:SapClassBasic80.dll
 0001:0002b03a       ?ReadRect@SapBuffer@@UAEHHHHHHPAX@Z 67dac03a f   SapClassBasic:SapClassBasic80.dll
 0001:0002b040       ?ReadRect@SapBuffer@@UAEHHHHHPAX@Z 67dac040 f   SapClassBasic:SapClassBasic80.dll
 0001:0002b046       ?Write@SapBuffer@@UAEHH_KHPBX@Z 67dac046 f   SapClassBasic:SapClassBasic80.dll
 0001:0002b04c       ?Write@SapBuffer@@UAEH_KHPBX@Z 67dac04c f   SapClassBasic:SapClassBasic80.dll
 0001:0002b052       ?WriteElement@SapBuffer@@UAEHHHHVSapData@@@Z 67dac052 f   SapClassBasic:SapClassBasic80.dll
 0001:0002b058       ?WriteElement@SapBuffer@@UAEHHHVSapData@@@Z 67dac058 f   SapClassBasic:SapClassBasic80.dll
 0001:0002b05e       ?WriteElement@SapBuffer@@UAEHHHHPBX@Z 67dac05e f   SapClassBasic:SapClassBasic80.dll
 0001:0002b064       ?WriteElement@SapBuffer@@UAEHHHPBX@Z 67dac064 f   SapClassBasic:SapClassBasic80.dll
 0001:0002b06a       ?WriteLine@SapBuffer@@UAEHHHHHHPBXPAH@Z 67dac06a f   SapClassBasic:SapClassBasic80.dll
 0001:0002b070       ?WriteLine@SapBuffer@@UAEHHHHHPBXPAH@Z 67dac070 f   SapClassBasic:SapClassBasic80.dll
 0001:0002b076       ?WriteRect@SapBuffer@@UAEHHHHHHPBX@Z 67dac076 f   SapClassBasic:SapClassBasic80.dll
 0001:0002b07c       ?WriteRect@SapBuffer@@UAEHHHHHPBX@Z 67dac07c f   SapClassBasic:SapClassBasic80.dll
 0001:0002b082       ?Copy@SapBuffer@@UAEHPAV1@HH@Z 67dac082 f   SapClassBasic:SapClassBasic80.dll
 0001:0002b088       ?Copy@SapBuffer@@UAEHPAV1@@Z 67dac088 f   SapClassBasic:SapClassBasic80.dll
 0001:0002b08e       ?CopyAll@SapBuffer@@UAEHPAV1@@Z 67dac08e f   SapClassBasic:SapClassBasic80.dll
 0001:0002b094       ?CopyRect@SapBuffer@@UAEHPAV1@HHHHHHHH@Z 67dac094 f   SapClassBasic:SapClassBasic80.dll
 0001:0002b09a       ?ColorConvert@SapBuffer@@UAEHPAV1@HHHHVSapDataFRGB@@PAVSapLut@@@Z 67dac09a f   SapClassBasic:SapClassBasic80.dll
 0001:0002b0a0       ?ColorConvert@SapBuffer@@UAEHPAV1@HHVSapDataFRGB@@PAVSapLut@@@Z 67dac0a0 f   SapClassBasic:SapClassBasic80.dll
 0001:0002b0a6       ?ColorWhiteBalance@SapBuffer@@UAEHHHPAVSapDataFRGB@@@Z 67dac0a6 f   SapClassBasic:SapClassBasic80.dll
 0001:0002b0ac       ?ColorWhiteBalance@SapBuffer@@UAEHHPAVSapDataFRGB@@@Z 67dac0ac f   SapClassBasic:SapClassBasic80.dll
 0001:0002b0b2       ?SplitComponents@SapBuffer@@UAEHPAV1@H@Z 67dac0b2 f   SapClassBasic:SapClassBasic80.dll
 0001:0002b0b8       ?SplitComponents@SapBuffer@@UAEHPAV1@@Z 67dac0b8 f   SapClassBasic:SapClassBasic80.dll
 0001:0002b0be       ?MergeComponents@SapBuffer@@UAEHPAV1@H@Z 67dac0be f   SapClassBasic:SapClassBasic80.dll
 0001:0002b0c4       ?MergeComponents@SapBuffer@@UAEHPAV1@@Z 67dac0c4 f   SapClassBasic:SapClassBasic80.dll
 0001:0002b0ca       ?Register@SapBuffer@@UAEHPBD@Z 67dac0ca f   SapClassBasic:SapClassBasic80.dll
 0001:0002b0d0       ?Unregister@SapBuffer@@UAEHXZ 67dac0d0 f   SapClassBasic:SapClassBasic80.dll
 0001:0002b0d6       ?GetNumRoi@SapBuffer@@UBEHXZ 67dac0d6 f   SapClassBasic:SapClassBasic80.dll
 0001:0002b0dc       ?GetRoi@SapBuffer@@UBEQAUtagRECT@@H@Z 67dac0dc f   SapClassBasic:SapClassBasic80.dll
 0001:0002b0e2       ?AddRoi@SapBuffer@@UAEHUtagRECT@@@Z 67dac0e2 f   SapClassBasic:SapClassBasic80.dll
 0001:0002b0e8       ?RemoveAllRoi@SapBuffer@@UAEHXZ 67dac0e8 f   SapClassBasic:SapClassBasic80.dll
 0001:0002b0ee       ?GetChild@SapBuffer@@UBEPAU__CORHANDLE@@HH@Z 67dac0ee f   SapClassBasic:SapClassBasic80.dll
 0001:0002b0f4       ?BayerConvert@SapBuffer@@UAEHPAV1@HHHHVSapDataFRGB@@PAVSapLut@@@Z 67dac0f4 f   SapClassBasic:SapClassBasic80.dll
 0001:0002b0fa       ?BayerConvert@SapBuffer@@UAEHPAV1@HHVSapDataFRGB@@PAVSapLut@@@Z 67dac0fa f   SapClassBasic:SapClassBasic80.dll
 0001:0002b100       ?BayerWhiteBalance@SapBuffer@@UAEHHHPAVSapDataFRGB@@@Z 67dac100 f   SapClassBasic:SapClassBasic80.dll
 0001:0002b106       ?BayerWhiteBalance@SapBuffer@@UAEHHPAVSapDataFRGB@@@Z 67dac106 f   SapClassBasic:SapClassBasic80.dll
 0001:0002b10c       ?Construct@SapBuffer@@MAEXPBDPAVSapDisplay@@@Z 67dac10c f   SapClassBasic:SapClassBasic80.dll
 0001:0002b112       ?GetLastStatus@SapManager@@SAPBDXZ 67dac112 f   SapClassBasic:SapClassBasic80.dll
 0001:0002b118       ?GetAverage@SapFlatFieldStats@@QBEHH@Z 67dac118 f   SapClassBasic:SapClassBasic80.dll
 0001:0002b11e       ?GetNumComponents@SapFlatFieldStats@@QBEHXZ 67dac11e f   SapClassBasic:SapClassBasic80.dll
 0001:0002b124       ??1SapFlatFieldStats@@QAE@XZ 67dac124 f   SapClassBasic:SapClassBasic80.dll
 0001:0002b12a       ??0SapFlatFieldStats@@QAE@XZ 67dac12a f   SapClassBasic:SapClassBasic80.dll
 0001:0002b130       ??1SapFlatFieldDefects@@QAE@XZ 67dac130 f   SapClassBasic:SapClassBasic80.dll
 0001:0002b136       ?GetNumDefects@SapFlatFieldDefects@@QBEHXZ 67dac136 f   SapClassBasic:SapClassBasic80.dll
 0001:0002b13c       ?GetDefectRatio@SapFlatFieldDefects@@QBEMXZ 67dac13c f   SapClassBasic:SapClassBasic80.dll
 0001:0002b142       ?GetNumClusters@SapFlatFieldDefects@@QBEHXZ 67dac142 f   SapClassBasic:SapClassBasic80.dll
 0001:0002b148       ??0SapFlatFieldDefects@@QAE@XZ 67dac148 f   SapClassBasic:SapClassBasic80.dll
 0001:0002b14e       ?GetStdDeviation@SapFlatFieldStats@@QBEHH@Z 67dac14e f   SapClassBasic:SapClassBasic80.dll
 0001:0002b154       ?GetLow@SapFlatFieldStats@@QBEHH@Z 67dac154 f   SapClassBasic:SapClassBasic80.dll
 0001:0002b15a       ?GetHigh@SapFlatFieldStats@@QBEHH@Z 67dac15a f   SapClassBasic:SapClassBasic80.dll
 0001:0002b160       ?GetPeakPosition@SapFlatFieldStats@@QBEHH@Z 67dac160 f   SapClassBasic:SapClassBasic80.dll
 0001:0002b166       ?GetPixelRatio@SapFlatFieldStats@@QBEMH@Z 67dac166 f   SapClassBasic:SapClassBasic80.dll
 0001:0002b16c       ?GetNumPixels@SapFlatFieldStats@@QBEHH@Z 67dac16c f   SapClassBasic:SapClassBasic80.dll
 0001:0002b172       ?WriteFile@SapAcqDevice@@QAEHPBDH@Z 67dac172 f   SapClassBasic:SapClassBasic80.dll
 0001:0002b178       ?SetCommandTimeout@SapManager@@SAXH@Z 67dac178 f   SapClassBasic:SapClassBasic80.dll
 0001:0002b17e       ?GetCommandTimeout@SapManager@@SAHXZ 67dac17e f   SapClassBasic:SapClassBasic80.dll
 0001:0002b184       ?GetPinNumber@SapGioCallbackInfo@@QBEHXZ 67dac184 f   SapClassBasic:SapClassBasic80.dll
 0001:0002b18a       ?GetEventCount@SapGioCallbackInfo@@QBEHXZ 67dac18a f   SapClassBasic:SapClassBasic80.dll
 0001:0002b190       ?GetContext@SapGioCallbackInfo@@QBEPAXXZ 67dac190 f   SapClassBasic:SapClassBasic80.dll
 0001:0002b196       ?GetNumPins@SapGio@@QBEHXZ 67dac196 f   SapClassBasic:SapClassBasic80.dll
 0001:0002b19c       ?SetDisplayStatusMode@SapManager@@SAHHP6AXPAVSapManCallbackInfo@@@ZPAX@Z 67dac19c f   SapClassBasic:SapClassBasic80.dll
 0001:0002b1a2       ?GetBuffer@SapView@@QBEPAVSapBuffer@@XZ 67dac1a2 f   SapClassBasic:SapClassBasic80.dll
 0001:0002b1a8       ?ZoomVert@SapViewScaleParams@@QBEMXZ 67dac1a8 f   SapClassBasic:SapClassBasic80.dll
 0001:0002b1ae       ?ZoomHorz@SapViewScaleParams@@QBEMXZ 67dac1ae f   SapClassBasic:SapClassBasic80.dll
 0001:0002b1b4       ?GetScaleParamsSrc@SapView@@QAEABVSapViewScaleParams@@XZ 67dac1b4 f   SapClassBasic:SapClassBasic80.dll
 0001:0002b1ba       ?Top@SapViewScaleParams@@QBEHXZ 67dac1ba f   SapClassBasic:SapClassBasic80.dll
 0001:0002b1c0       ?Left@SapViewScaleParams@@QBEHXZ 67dac1c0 f   SapClassBasic:SapClassBasic80.dll
 0001:0002b1c6       ?GetScaleParamsDst@SapView@@QAEABVSapViewScaleParams@@XZ 67dac1c6 f   SapClassBasic:SapClassBasic80.dll
 0001:0002b1cc       ?GetScrollRange@SapView@@QBE?AUtagSIZE@@XZ 67dac1cc f   SapClassBasic:SapClassBasic80.dll
 0001:0002b1d2       ?GetScrollPos@SapView@@QBE?AUtagPOINT@@XZ 67dac1d2 f   SapClassBasic:SapClassBasic80.dll
 0001:0002b1d8       ?Height@SapViewScaleParams@@QBEHXZ 67dac1d8 f   SapClassBasic:SapClassBasic80.dll
 0001:0002b1de       ?Width@SapViewScaleParams@@QBEHXZ 67dac1de f   SapClassBasic:SapClassBasic80.dll
 0001:0002b1e4       ?GetScalingMode@SapView@@QBE?AW4ScalingMode@1@XZ 67dac1e4 f   SapClassBasic:SapClassBasic80.dll
 0001:0002b1ea       ??1SapDataMono@@UAE@XZ     67dac1ea f   SapClassBasic:SapClassBasic80.dll
 0001:0002b1f0       ?Mono@SapDataMono@@QAEHXZ  67dac1f0 f   SapClassBasic:SapClassBasic80.dll
 0001:0002b1f6       ??0SapDataMono@@QAE@XZ     67dac1f6 f   SapClassBasic:SapClassBasic80.dll
 0001:0002b1fc       ??1SapData@@UAE@XZ         67dac1fc f   SapClassBasic:SapClassBasic80.dll
 0001:0002b202       ??0SapDataRGB@@QAE@ABVSapData@@@Z 67dac202 f   SapClassBasic:SapClassBasic80.dll
 0001:0002b208       ??0SapData@@QAE@XZ         67dac208 f   SapClassBasic:SapClassBasic80.dll
 0001:0002b20e       ??1SapDataRGB@@UAE@XZ      67dac20e f   SapClassBasic:SapClassBasic80.dll
 0001:0002b214       ?Red@SapDataRGB@@QAEHXZ    67dac214 f   SapClassBasic:SapClassBasic80.dll
 0001:0002b21a       ?Green@SapDataRGB@@QAEHXZ  67dac21a f   SapClassBasic:SapClassBasic80.dll
 0001:0002b220       ?Blue@SapDataRGB@@QAEHXZ   67dac220 f   SapClassBasic:SapClassBasic80.dll
 0001:0002b226       ??0SapDataRGB@@QAE@XZ      67dac226 f   SapClassBasic:SapClassBasic80.dll
 0001:0002b22c       ??1SapDataRGBA@@UAE@XZ     67dac22c f   SapClassBasic:SapClassBasic80.dll
 0001:0002b232       ?Red@SapDataRGBA@@QAEHXZ   67dac232 f   SapClassBasic:SapClassBasic80.dll
 0001:0002b238       ?Green@SapDataRGBA@@QAEHXZ 67dac238 f   SapClassBasic:SapClassBasic80.dll
 0001:0002b23e       ?Blue@SapDataRGBA@@QAEHXZ  67dac23e f   SapClassBasic:SapClassBasic80.dll
 0001:0002b244       ??0SapDataRGBA@@QAE@XZ     67dac244 f   SapClassBasic:SapClassBasic80.dll
 0001:0002b24a       ??1SapDataYUV@@UAE@XZ      67dac24a f   SapClassBasic:SapClassBasic80.dll
 0001:0002b250       ?Y@SapDataYUV@@QAEHXZ      67dac250 f   SapClassBasic:SapClassBasic80.dll
 0001:0002b256       ?U@SapDataYUV@@QAEHXZ      67dac256 f   SapClassBasic:SapClassBasic80.dll
 0001:0002b25c       ?V@SapDataYUV@@QAEHXZ      67dac25c f   SapClassBasic:SapClassBasic80.dll
 0001:0002b262       ??0SapDataYUV@@QAE@XZ      67dac262 f   SapClassBasic:SapClassBasic80.dll
 0001:0002b268       ??1SapDataHSV@@UAE@XZ      67dac268 f   SapClassBasic:SapClassBasic80.dll
 0001:0002b26e       ?H@SapDataHSV@@QAEHXZ      67dac26e f   SapClassBasic:SapClassBasic80.dll
 0001:0002b274       ?S@SapDataHSV@@QAEHXZ      67dac274 f   SapClassBasic:SapClassBasic80.dll
 0001:0002b27a       ?V@SapDataHSV@@QAEHXZ      67dac27a f   SapClassBasic:SapClassBasic80.dll
 0001:0002b280       ??0SapDataHSV@@QAE@XZ      67dac280 f   SapClassBasic:SapClassBasic80.dll
 0001:0002b286       ??1SapDataLABA@@UAE@XZ     67dac286 f   SapClassBasic:SapClassBasic80.dll
 0001:0002b28c       ?L@SapDataLABA@@QAEHXZ     67dac28c f   SapClassBasic:SapClassBasic80.dll
 0001:0002b292       ?A@SapDataLABA@@QAEHXZ     67dac292 f   SapClassBasic:SapClassBasic80.dll
 0001:0002b298       ?B@SapDataLABA@@QAEHXZ     67dac298 f   SapClassBasic:SapClassBasic80.dll
 0001:0002b29e       ??0SapDataLABA@@QAE@XZ     67dac29e f   SapClassBasic:SapClassBasic80.dll
 0001:0002b2a4       ??1SapDataLAB@@UAE@XZ      67dac2a4 f   SapClassBasic:SapClassBasic80.dll
 0001:0002b2aa       ?L@SapDataLAB@@QAEHXZ      67dac2aa f   SapClassBasic:SapClassBasic80.dll
 0001:0002b2b0       ?A@SapDataLAB@@QAEHXZ      67dac2b0 f   SapClassBasic:SapClassBasic80.dll
 0001:0002b2b6       ?B@SapDataLAB@@QAEHXZ      67dac2b6 f   SapClassBasic:SapClassBasic80.dll
 0001:0002b2bc       ??0SapDataLAB@@QAE@XZ      67dac2bc f   SapClassBasic:SapClassBasic80.dll
 0001:0002b2c2       ??1SapDataHSI@@UAE@XZ      67dac2c2 f   SapClassBasic:SapClassBasic80.dll
 0001:0002b2c8       ?H@SapDataHSI@@QAEHXZ      67dac2c8 f   SapClassBasic:SapClassBasic80.dll
 0001:0002b2ce       ?S@SapDataHSI@@QAEHXZ      67dac2ce f   SapClassBasic:SapClassBasic80.dll
 0001:0002b2d4       ?I@SapDataHSI@@QAEHXZ      67dac2d4 f   SapClassBasic:SapClassBasic80.dll
 0001:0002b2da       ??0SapDataHSI@@QAE@XZ      67dac2da f   SapClassBasic:SapClassBasic80.dll
 0001:0002b2e0       ?SetRefImage@SapPixProParams@@QAEXH@Z 67dac2e0 f   SapClassBasic:SapClassBasic80.dll
 0001:0002b2e6       ?SetBankId@SapPixProParams@@QAEXH@Z 67dac2e6 f   SapClassBasic:SapClassBasic80.dll
 0001:0002b2ec       ??1SapPixPro@@UAE@XZ       67dac2ec f   SapClassBasic:SapClassBasic80.dll
 0001:0002b2f2       ??4SapPixPro@@QAEAAV0@ABV0@@Z 67dac2f2 f   SapClassBasic:SapClassBasic80.dll
 0001:0002b2f8       ??0SapPixPro@@QAE@VSapLocation@@PBDPAVSapXferNode@@PAVSapPixProParams@@@Z 67dac2f8 f   SapClassBasic:SapClassBasic80.dll
 0001:0002b2fe       ??1SapPixProParams@@QAE@XZ 67dac2fe f   SapClassBasic:SapClassBasic80.dll
 0001:0002b304       ?SetConfigIndex@SapPixProParams@@QAEXH@Z 67dac304 f   SapClassBasic:SapClassBasic80.dll
 0001:0002b30a       ?SetFunctionIndex@SapPixProParams@@QAEXH@Z 67dac30a f   SapClassBasic:SapClassBasic80.dll
 0001:0002b310       ?GetParams@SapPixPro@@QBEPBVSapPixProParams@@XZ 67dac310 f   SapClassBasic:SapClassBasic80.dll
 0001:0002b316       ?GetConfigIndex@SapPixProParams@@QBEHXZ 67dac316 f   SapClassBasic:SapClassBasic80.dll
 0001:0002b31c       ?GetFunctionIndex@SapPixProParams@@QBEHXZ 67dac31c f   SapClassBasic:SapClassBasic80.dll
 0001:0002b322       ?GetFile@SapPixPro@@QBEPBDXZ 67dac322 f   SapClassBasic:SapClassBasic80.dll
 0001:0002b328       ?GetFunctionInfo@SapPixPro@@QAEHHPAUCORPPL_FCT_PROP@@PADH@Z 67dac328 f   SapClassBasic:SapClassBasic80.dll
 0001:0002b32e       ?GetConfigInfo@SapPixPro@@QAEHHPADH@Z 67dac32e f   SapClassBasic:SapClassBasic80.dll
 0001:0002b334       ?GetNumConfigs@SapPixPro@@QAEHXZ 67dac334 f   SapClassBasic:SapClassBasic80.dll
 0001:0002b33a       ?GetNumFunctions@SapPixPro@@QAEHXZ 67dac33a f   SapClassBasic:SapClassBasic80.dll
 0001:0002b340       ?ReadDesign@SapPixPro@@QAEHPAD@Z 67dac340 f   SapClassBasic:SapClassBasic80.dll
 0001:0002b346       ?SetIntegrateFactor@SapPixProParams@@QAEXH@Z 67dac346 f   SapClassBasic:SapClassBasic80.dll
 0001:0002b34c       ?SetIntegrateCount@SapPixProParams@@QAEXH@Z 67dac34c f   SapClassBasic:SapClassBasic80.dll
 0001:0002b352       ?SetWeightingFactor@SapPixProParams@@QAEXH@Z 67dac352 f   SapClassBasic:SapClassBasic80.dll
 0001:0002b358       ??1SapViewScaleParams@@QAE@XZ 67dac358 f   SapClassBasic:SapClassBasic80.dll
 0001:0002b35e       ??3@YAXPAX@Z               67dac35e f   mfc100d:mfc100d.dll
 0001:0002b364       ??0CDialog@@QAE@IPAVCWnd@@@Z 67dac364 f   mfc100d:mfc100d.dll
 0001:0002b36a       ?GetRuntimeClass@CDialog@@UBEPAUCRuntimeClass@@XZ 67dac36a f   mfc100d:mfc100d.dll
 0001:0002b370       ?Serialize@CObject@@UAEXAAVCArchive@@@Z 67dac370 f   mfc100d:mfc100d.dll
 0001:0002b376       ?AssertValid@CDialog@@UBEXXZ 67dac376 f   mfc100d:mfc100d.dll
 0001:0002b37c       ?Dump@CDialog@@UBEXAAVCDumpContext@@@Z 67dac37c f   mfc100d:mfc100d.dll
 0001:0002b382       ?OnCmdMsg@CDialog@@UAEHIHPAXPAUAFX_CMDHANDLERINFO@@@Z 67dac382 f   mfc100d:mfc100d.dll
 0001:0002b388       ?OnFinalRelease@CWnd@@UAEXXZ 67dac388 f   mfc100d:mfc100d.dll
 0001:0002b38e       ?IsInvokeAllowed@CCmdTarget@@UAEHJ@Z 67dac38e f   mfc100d:mfc100d.dll
 0001:0002b394       ?GetDispatchIID@CCmdTarget@@UAEHPAU_GUID@@@Z 67dac394 f   mfc100d:mfc100d.dll
 0001:0002b39a       ?GetTypeInfoCount@CCmdTarget@@UAEIXZ 67dac39a f   mfc100d:mfc100d.dll
 0001:0002b3a0       ?GetTypeLibCache@CCmdTarget@@UAEPAVCTypeLibCache@@XZ 67dac3a0 f   mfc100d:mfc100d.dll
 0001:0002b3a6       ?GetTypeLib@CCmdTarget@@UAEJKPAPAUITypeLib@@@Z 67dac3a6 f   mfc100d:mfc100d.dll
 0001:0002b3ac       ?GetCommandMap@CCmdTarget@@MBEPBUAFX_OLECMDMAP@@XZ 67dac3ac f   mfc100d:mfc100d.dll
 0001:0002b3b2       ?GetDispatchMap@CCmdTarget@@MBEPBUAFX_DISPMAP@@XZ 67dac3b2 f   mfc100d:mfc100d.dll
 0001:0002b3b8       ?GetConnectionMap@CCmdTarget@@MBEPBUAFX_CONNECTIONMAP@@XZ 67dac3b8 f   mfc100d:mfc100d.dll
 0001:0002b3be       ?GetInterfaceMap@CWnd@@MBEPBUAFX_INTERFACEMAP@@XZ 67dac3be f   mfc100d:mfc100d.dll
 0001:0002b3c4       ?GetEventSinkMap@CCmdTarget@@MBEPBUAFX_EVENTSINKMAP@@XZ 67dac3c4 f   mfc100d:mfc100d.dll
 0001:0002b3ca       ?OnCreateAggregates@CCmdTarget@@UAEHXZ 67dac3ca f   mfc100d:mfc100d.dll
 0001:0002b3d0       ?GetInterfaceHook@CCmdTarget@@UAEPAUIUnknown@@PBX@Z 67dac3d0 f   mfc100d:mfc100d.dll
 0001:0002b3d6       ?GetExtraConnectionPoints@CCmdTarget@@MAEHPAVCPtrArray@@@Z 67dac3d6 f   mfc100d:mfc100d.dll
 0001:0002b3dc       ?GetConnectionHook@CCmdTarget@@MAEPAUIConnectionPoint@@ABU_GUID@@@Z 67dac3dc f   mfc100d:mfc100d.dll
 0001:0002b3e2       ?PreSubclassWindow@CWnd@@UAEXXZ 67dac3e2 f   mfc100d:mfc100d.dll
 0001:0002b3e8       ?Create@CWnd@@UAEHPBD0KABUtagRECT@@PAV1@IPAUCCreateContext@@@Z 67dac3e8 f   mfc100d:mfc100d.dll
 0001:0002b3ee       ?CreateEx@CWnd@@UAEHKPBD0KABUtagRECT@@PAV1@IPAX@Z 67dac3ee f   mfc100d:mfc100d.dll
 0001:0002b3f4       ?CreateEx@CWnd@@UAEHKPBD0KHHHHPAUHWND__@@PAUHMENU__@@PAX@Z 67dac3f4 f   mfc100d:mfc100d.dll
 0001:0002b3fa       ?DestroyWindow@CWnd@@UAEHXZ 67dac3fa f   mfc100d:mfc100d.dll
 0001:0002b400       ?PreCreateWindow@CWnd@@UAEHAAUtagCREATESTRUCTA@@@Z 67dac400 f   mfc100d:mfc100d.dll
 0001:0002b406       ?CalcWindowRect@CWnd@@UAEXPAUtagRECT@@I@Z 67dac406 f   mfc100d:mfc100d.dll
 0001:0002b40c       ?GetMenu@CWnd@@UBEPAVCMenu@@XZ 67dac40c f   mfc100d:mfc100d.dll
 0001:0002b412       ?SetMenu@CWnd@@UAEHPAVCMenu@@@Z 67dac412 f   mfc100d:mfc100d.dll
 0001:0002b418       ?OnToolHitTest@CWnd@@UBEHVCPoint@@PAUtagTOOLINFOA@@@Z 67dac418 f   mfc100d:mfc100d.dll
 0001:0002b41e       ?GetScrollBarCtrl@CWnd@@UBEPAVCScrollBar@@H@Z 67dac41e f   mfc100d:mfc100d.dll
 0001:0002b424       ?WinHelpA@CWnd@@UAEXKI@Z   67dac424 f   mfc100d:mfc100d.dll
 0001:0002b42a       ?HtmlHelpA@CWnd@@UAEXKI@Z  67dac42a f   mfc100d:mfc100d.dll
 0001:0002b430       ?WinHelpInternal@CWnd@@UAEXKI@Z 67dac430 f   mfc100d:mfc100d.dll
 0001:0002b436       ?ContinueModal@CWnd@@UAEHXZ 67dac436 f   mfc100d:mfc100d.dll
 0001:0002b43c       ?EndModalLoop@CWnd@@UAEXH@Z 67dac43c f   mfc100d:mfc100d.dll
 0001:0002b442       ?OnDrawIconicThumbnailOrLivePreview@CWnd@@UAEXAAVCDC@@VCRect@@VCSize@@HAAH@Z 67dac442 f   mfc100d:mfc100d.dll
 0001:0002b448       ?EnsureStdObj@CWnd@@UAEJXZ 67dac448 f   mfc100d:mfc100d.dll
 0001:0002b44e       ?get_accParent@CWnd@@UAEJPAPAUIDispatch@@@Z 67dac44e f   mfc100d:mfc100d.dll
 0001:0002b454       ?get_accChildCount@CWnd@@UAEJPAJ@Z 67dac454 f   mfc100d:mfc100d.dll
 0001:0002b45a       ?get_accChild@CWnd@@UAEJUtagVARIANT@@PAPAUIDispatch@@@Z 67dac45a f   mfc100d:mfc100d.dll
 0001:0002b460       ?get_accName@CWnd@@UAEJUtagVARIANT@@PAPA_W@Z 67dac460 f   mfc100d:mfc100d.dll
 0001:0002b466       ?get_accValue@CWnd@@UAEJUtagVARIANT@@PAPA_W@Z 67dac466 f   mfc100d:mfc100d.dll
 0001:0002b46c       ?get_accDescription@CWnd@@UAEJUtagVARIANT@@PAPA_W@Z 67dac46c f   mfc100d:mfc100d.dll
 0001:0002b472       ?get_accRole@CWnd@@UAEJUtagVARIANT@@PAU2@@Z 67dac472 f   mfc100d:mfc100d.dll
 0001:0002b478       ?get_accState@CWnd@@UAEJUtagVARIANT@@PAU2@@Z 67dac478 f   mfc100d:mfc100d.dll
 0001:0002b47e       ?get_accHelp@CWnd@@UAEJUtagVARIANT@@PAPA_W@Z 67dac47e f   mfc100d:mfc100d.dll
 0001:0002b484       ?get_accHelpTopic@CWnd@@UAEJPAPA_WUtagVARIANT@@PAJ@Z 67dac484 f   mfc100d:mfc100d.dll
 0001:0002b48a       ?get_accKeyboardShortcut@CWnd@@UAEJUtagVARIANT@@PAPA_W@Z 67dac48a f   mfc100d:mfc100d.dll
 0001:0002b490       ?get_accFocus@CWnd@@UAEJPAUtagVARIANT@@@Z 67dac490 f   mfc100d:mfc100d.dll
 0001:0002b496       ?get_accSelection@CWnd@@UAEJPAUtagVARIANT@@@Z 67dac496 f   mfc100d:mfc100d.dll
 0001:0002b49c       ?get_accDefaultAction@CWnd@@UAEJUtagVARIANT@@PAPA_W@Z 67dac49c f   mfc100d:mfc100d.dll
 0001:0002b4a2       ?accSelect@CWnd@@UAEJJUtagVARIANT@@@Z 67dac4a2 f   mfc100d:mfc100d.dll
 0001:0002b4a8       ?accLocation@CWnd@@UAEJPAJ000UtagVARIANT@@@Z 67dac4a8 f   mfc100d:mfc100d.dll
 0001:0002b4ae       ?accNavigate@CWnd@@UAEJJUtagVARIANT@@PAU2@@Z 67dac4ae f   mfc100d:mfc100d.dll
 0001:0002b4b4       ?accHitTest@CWnd@@UAEJJJPAUtagVARIANT@@@Z 67dac4b4 f   mfc100d:mfc100d.dll
 0001:0002b4ba       ?accDoDefaultAction@CWnd@@UAEJUtagVARIANT@@@Z 67dac4ba f   mfc100d:mfc100d.dll
 0001:0002b4c0       ?put_accName@CWnd@@UAEJUtagVARIANT@@PA_W@Z 67dac4c0 f   mfc100d:mfc100d.dll
 0001:0002b4c6       ?put_accValue@CWnd@@UAEJUtagVARIANT@@PA_W@Z 67dac4c6 f   mfc100d:mfc100d.dll
 0001:0002b4cc       ?SetProxy@CWnd@@UAEJPAUIAccessibleProxy@@@Z 67dac4cc f   mfc100d:mfc100d.dll
 0001:0002b4d2       ?CreateAccessibleProxy@CWnd@@UAEJIJPAJ@Z 67dac4d2 f   mfc100d:mfc100d.dll
 0001:0002b4d8       ?OnCommand@CWnd@@MAEHIJ@Z  67dac4d8 f   mfc100d:mfc100d.dll
 0001:0002b4de       ?OnNotify@CWnd@@MAEHIJPAJ@Z 67dac4de f   mfc100d:mfc100d.dll
 0001:0002b4e4       ?GetSuperWndProcAddr@CWnd@@MAEPAP6GJPAUHWND__@@IIJ@ZXZ 67dac4e4 f   mfc100d:mfc100d.dll
 0001:0002b4ea       ?BeginModalState@CWnd@@UAEXXZ 67dac4ea f   mfc100d:mfc100d.dll
 0001:0002b4f0       ?EndModalState@CWnd@@UAEXXZ 67dac4f0 f   mfc100d:mfc100d.dll
 0001:0002b4f6       ?PreTranslateMessage@CDialog@@UAEHPAUtagMSG@@@Z 67dac4f6 f   mfc100d:mfc100d.dll
 0001:0002b4fc       ?OnAmbientProperty@CWnd@@UAEHPAVCOleControlSite@@JPAUtagVARIANT@@@Z 67dac4fc f   mfc100d:mfc100d.dll
 0001:0002b502       ?WindowProc@CWnd@@MAEJIIJ@Z 67dac502 f   mfc100d:mfc100d.dll
 0001:0002b508       ?OnWndMsg@CWnd@@MAEHIIJPAJ@Z 67dac508 f   mfc100d:mfc100d.dll
 0001:0002b50e       ?DefWindowProcA@CWnd@@MAEJIIJ@Z 67dac50e f   mfc100d:mfc100d.dll
 0001:0002b514       ?PostNcDestroy@CWnd@@MAEXXZ 67dac514 f   mfc100d:mfc100d.dll
 0001:0002b51a       ?OnChildNotify@CWnd@@MAEHIIJPAJ@Z 67dac51a f   mfc100d:mfc100d.dll
 0001:0002b520       ?OnTouchInputs@CWnd@@MAEHIPAUtagTOUCHINPUT@@@Z 67dac520 f   mfc100d:mfc100d.dll
 0001:0002b526       ?OnTouchInput@CWnd@@MAEHVCPoint@@HHPAUtagTOUCHINPUT@@@Z 67dac526 f   mfc100d:mfc100d.dll
 0001:0002b52c       ?GetGestureStatus@CWnd@@MAEKVCPoint@@@Z 67dac52c f   mfc100d:mfc100d.dll
 0001:0002b532       ?OnGestureZoom@CWnd@@MAEHVCPoint@@J@Z 67dac532 f   mfc100d:mfc100d.dll
 0001:0002b538       ?OnGesturePan@CWnd@@MAEHVCPoint@@0@Z 67dac538 f   mfc100d:mfc100d.dll
 0001:0002b53e       ?OnGestureRotate@CWnd@@MAEHVCPoint@@N@Z 67dac53e f   mfc100d:mfc100d.dll
 0001:0002b544       ?OnGestureTwoFingerTap@CWnd@@MAEHVCPoint@@@Z 67dac544 f   mfc100d:mfc100d.dll
 0001:0002b54a       ?OnGesturePressAndTap@CWnd@@MAEHVCPoint@@J@Z 67dac54a f   mfc100d:mfc100d.dll
 0001:0002b550       ?CheckAutoCenter@CDialog@@UAEHXZ 67dac550 f   mfc100d:mfc100d.dll
 0001:0002b556       ?IsFrameWnd@CWnd@@UBEHXZ   67dac556 f   mfc100d:mfc100d.dll
 0001:0002b55c       ?CreateControlContainer@CWnd@@MAEHPAPAVCOleControlContainer@@@Z 67dac55c f   mfc100d:mfc100d.dll
 0001:0002b562       ?CreateControlSite@CWnd@@MAEHPAVCOleControlContainer@@PAPAVCOleControlSite@@IABU_GUID@@@Z 67dac562 f   mfc100d:mfc100d.dll
 0001:0002b568       ?SetOccDialogInfo@CDialog@@MAEHPAU_AFX_OCC_DIALOG_INFO@@@Z 67dac568 f   mfc100d:mfc100d.dll
 0001:0002b56e       ?GetOccDialogInfo@CDialog@@MAEPAU_AFX_OCC_DIALOG_INFO@@XZ 67dac56e f   mfc100d:mfc100d.dll
 0001:0002b574       ?Create@CDialog@@UAEHIPAVCWnd@@@Z 67dac574 f   mfc100d:mfc100d.dll
 0001:0002b57a       ?Create@CDialog@@UAEHPBDPAVCWnd@@@Z 67dac57a f   mfc100d:mfc100d.dll
 0001:0002b580       ?CreateIndirect@CDialog@@UAEHPAXPAVCWnd@@@Z 67dac580 f   mfc100d:mfc100d.dll
 0001:0002b586       ?CreateIndirect@CDialog@@UAEHPBUDLGTEMPLATE@@PAVCWnd@@PAX@Z 67dac586 f   mfc100d:mfc100d.dll
 0001:0002b58c       ?DoModal@CDialog@@UAEHXZ   67dac58c f   mfc100d:mfc100d.dll
 0001:0002b592       ?OnSetFont@CDialog@@UAEXPAVCFont@@@Z 67dac592 f   mfc100d:mfc100d.dll
 0001:0002b598       ?OnOK@CDialog@@MAEXXZ      67dac598 f   mfc100d:mfc100d.dll
 0001:0002b59e       ?OnCancel@CDialog@@MAEXXZ  67dac59e f   mfc100d:mfc100d.dll
 0001:0002b5a4       ?PreInitDialog@CDialog@@MAEXXZ 67dac5a4 f   mfc100d:mfc100d.dll
 0001:0002b5aa       ?DoDataExchange@CWnd@@MAEXPAVCDataExchange@@@Z 67dac5aa f   mfc100d:mfc100d.dll
 0001:0002b5b0       ?GetThisMessageMap@CDialog@@KGPBUAFX_MSGMAP@@XZ 67dac5b0 f   mfc100d:mfc100d.dll
 0001:0002b5b6       ?SetTimer@CWnd@@QAEIIIP6GXPAUHWND__@@IIK@Z@Z 67dac5b6 f   mfc100d:mfc100d.dll
 0001:0002b5bc       ?SetWindowPos@CWnd@@QAEHPBV1@HHHHI@Z 67dac5bc f   mfc100d:mfc100d.dll
 0001:0002b5c2       ?GetWindowRect@CWnd@@QBEXPAUtagRECT@@@Z 67dac5c2 f   mfc100d:mfc100d.dll
 0001:0002b5c8       ?OnInitDialog@CDialog@@UAEHXZ 67dac5c8 f   mfc100d:mfc100d.dll
 0001:0002b5ce       ?KillTimer@CWnd@@QAEHI@Z   67dac5ce f   mfc100d:mfc100d.dll
 0001:0002b5d4       ?OnTimer@CWnd@@IAEXI@Z     67dac5d4 f   mfc100d:mfc100d.dll
 0001:0002b5da       ??3CObject@@SGXPAX@Z       67dac5da f   mfc100d:mfc100d.dll
 0001:0002b5e0       ??1CDialog@@UAE@XZ         67dac5e0 f   mfc100d:mfc100d.dll
 0001:0002b5e6       ??_V@YAXPAX@Z              67dac5e6 f   mfc100d:mfc100d.dll
 0001:0002b5ec       ??1?$CStringT@DV?$StrTraitMFC_DLL@DV?$ChTraitsCRT@D@ATL@@@@@ATL@@QAE@XZ 67dac5ec f   mfc100d:mfc100d.dll
 0001:0002b5f2       ??1CListBox@@UAE@XZ        67dac5f2 f   mfc100d:mfc100d.dll
 0001:0002b5f8       ??1CEdit@@UAE@XZ           67dac5f8 f   mfc100d:mfc100d.dll
 0001:0002b5fe       ??1CComboBox@@UAE@XZ       67dac5fe f   mfc100d:mfc100d.dll
 0001:0002b604       ?AfxGetApp@@YGPAVCWinApp@@XZ 67dac604 f   mfc100d:mfc100d.dll
 0001:0002b60a       ??0?$CStringT@DV?$StrTraitMFC_DLL@DV?$ChTraitsCRT@D@ATL@@@@@ATL@@QAE@XZ 67dac60a f   mfc100d:mfc100d.dll
 0001:0002b610       ??0CListBox@@QAE@XZ        67dac610 f   mfc100d:mfc100d.dll
 0001:0002b616       ??0CEdit@@QAE@XZ           67dac616 f   mfc100d:mfc100d.dll
 0001:0002b61c       ??0CComboBox@@QAE@XZ       67dac61c f   mfc100d:mfc100d.dll
 0001:0002b622       ??4?$CStringT@DV?$StrTraitMFC_DLL@DV?$ChTraitsCRT@D@ATL@@@@@ATL@@QAEAAV01@ABV01@@Z 67dac622 f   mfc100d:mfc100d.dll
 0001:0002b628       ??0?$CStringT@DV?$StrTraitMFC_DLL@DV?$ChTraitsCRT@D@ATL@@@@@ATL@@QAE@PBD@Z 67dac628 f   mfc100d:mfc100d.dll
 0001:0002b62e       ??4?$CStringT@DV?$StrTraitMFC_DLL@DV?$ChTraitsCRT@D@ATL@@@@@ATL@@QAEAAV01@PBD@Z 67dac62e f   mfc100d:mfc100d.dll
 0001:0002b634       ??B?$CSimpleStringT@D$00@ATL@@QBEPBDXZ 67dac634 f   mfc100d:mfc100d.dll
 0001:0002b63a       ??0?$CStringT@DV?$StrTraitMFC_DLL@DV?$ChTraitsCRT@D@ATL@@@@@ATL@@QAE@ABV01@@Z 67dac63a f   mfc100d:mfc100d.dll
 0001:0002b640       ?DDX_Check@@YGXPAVCDataExchange@@HAAH@Z 67dac640 f   mfc100d:mfc100d.dll
 0001:0002b646       ?DDX_CBIndex@@YGXPAVCDataExchange@@HAAH@Z 67dac646 f   mfc100d:mfc100d.dll
 0001:0002b64c       ?DDX_CBString@@YGXPAVCDataExchange@@HAAV?$CStringT@DV?$StrTraitMFC_DLL@DV?$ChTraitsCRT@D@ATL@@@@@ATL@@@Z 67dac64c f   mfc100d:mfc100d.dll
 0001:0002b652       ?DDX_Control@@YGXPAVCDataExchange@@HAAVCWnd@@@Z 67dac652 f   mfc100d:mfc100d.dll
 0001:0002b658       ?IsEmpty@?$CSimpleStringT@D$00@ATL@@QBE_NXZ 67dac658 f   mfc100d:mfc100d.dll
 0001:0002b65e       ?SetDlgItemTextA@CWnd@@QAEXHPBD@Z 67dac65e f   mfc100d:mfc100d.dll
 0001:0002b664       ?GetLBText@CComboBox@@QBEXHAAV?$CStringT@DV?$StrTraitMFC_DLL@DV?$ChTraitsCRT@D@ATL@@@@@ATL@@@Z 67dac664 f   mfc100d:mfc100d.dll
 0001:0002b66a       ?SetCurSel@CComboBox@@QAEHH@Z 67dac66a f   mfc100d:mfc100d.dll
 0001:0002b670       ?SelectString@CComboBox@@QAEHHPBD@Z 67dac670 f   mfc100d:mfc100d.dll
 0001:0002b676       ?SetItemData@CComboBox@@QAEHHK@Z 67dac676 f   mfc100d:mfc100d.dll
 0001:0002b67c       ?GetCount@CComboBox@@QBEHXZ 67dac67c f   mfc100d:mfc100d.dll
 0001:0002b682       ?AddString@CComboBox@@QAEHPBD@Z 67dac682 f   mfc100d:mfc100d.dll
 0001:0002b688       ?ResetContent@CComboBox@@QAEXXZ 67dac688 f   mfc100d:mfc100d.dll
 0001:0002b68e       ?GetPathName@CFileDialog@@QBE?AV?$CStringT@DV?$StrTraitMFC_DLL@DV?$ChTraitsCRT@D@ATL@@@@@ATL@@XZ 67dac68e f   mfc100d:mfc100d.dll
 0001:0002b694       ??1CFileDialog@@UAE@XZ     67dac694 f   mfc100d:mfc100d.dll
 0001:0002b69a       ?ReleaseBuffer@?$CSimpleStringT@D$00@ATL@@QAEXH@Z 67dac69a f   mfc100d:mfc100d.dll
 0001:0002b6a0       ?DoModal@CFileDialog@@UAEHXZ 67dac6a0 f   mfc100d:mfc100d.dll
 0001:0002b6a6       ?GetOFN@CFileDialog@@QAEAAUtagOFNA@@XZ 67dac6a6 f   mfc100d:mfc100d.dll
 0001:0002b6ac       ?GetBuffer@?$CSimpleStringT@D$00@ATL@@QAEPADH@Z 67dac6ac f   mfc100d:mfc100d.dll
 0001:0002b6b2       ??0CFileDialog@@QAE@HPBD0K0PAVCWnd@@KH@Z 67dac6b2 f   mfc100d:mfc100d.dll
 0001:0002b6b8       ?UpdateData@CWnd@@QAEHH@Z  67dac6b8 f   mfc100d:mfc100d.dll
 0001:0002b6be       ?EnableWindow@CWnd@@QAEHH@Z 67dac6be f   mfc100d:mfc100d.dll
 0001:0002b6c4       ?GetDlgItem@CWnd@@QBEPAV1@H@Z 67dac6c4 f   mfc100d:mfc100d.dll
 0001:0002b6ca       ?GetItemData@CComboBox@@QBEKH@Z 67dac6ca f   mfc100d:mfc100d.dll
 0001:0002b6d0       ?GetCurSel@CComboBox@@QBEHXZ 67dac6d0 f   mfc100d:mfc100d.dll
 0001:0002b6d6       ?MessageBoxA@CWnd@@QAEHPBD0I@Z 67dac6d6 f   mfc100d:mfc100d.dll
 0001:0002b6dc       ?CompareNoCase@?$CStringT@DV?$StrTraitMFC_DLL@DV?$ChTraitsCRT@D@ATL@@@@@ATL@@QBEHPBD@Z 67dac6dc f   mfc100d:mfc100d.dll
 0001:0002b6e2       ?GetBuffer@?$CSimpleStringT@D$00@ATL@@QAEPADXZ 67dac6e2 f   mfc100d:mfc100d.dll
 0001:0002b6e8       ?Concatenate@?$CSimpleStringT@D$00@ATL@@KAXAAV12@PBDH1H@Z 67dac6e8 f   mfc100d:mfc100d.dll
 0001:0002b6ee       ?GetLength@?$CSimpleStringT@D$00@ATL@@QBEHXZ 67dac6ee f   mfc100d:mfc100d.dll
 0001:0002b6f4       ??0?$CStringT@DV?$StrTraitMFC_DLL@DV?$ChTraitsCRT@D@ATL@@@@@ATL@@QAE@PAUIAtlStringMgr@1@@Z 67dac6f4 f   mfc100d:mfc100d.dll
 0001:0002b6fa       ?GetManager@?$CStringT@DV?$StrTraitMFC_DLL@DV?$ChTraitsCRT@D@ATL@@@@@ATL@@QBEPAUIAtlStringMgr@2@XZ 67dac6fa f   mfc100d:mfc100d.dll
 0001:0002b700       ?OnVScroll@CWnd@@IAEXIIPAVCScrollBar@@@Z 67dac700 f   mfc100d:mfc100d.dll
 0001:0002b706       ?GetCheck@CButton@@QBEHXZ  67dac706 f   mfc100d:mfc100d.dll
 0001:0002b70c       ?SetCheck@CButton@@QAEXH@Z 67dac70c f   mfc100d:mfc100d.dll
 0001:0002b712       ?AfxMessageBox@@YGHPBDII@Z 67dac712 f   mfc100d:mfc100d.dll
 0001:0002b718       ??1CScrollBar@@UAE@XZ      67dac718 f   mfc100d:mfc100d.dll
 0001:0002b71e       ??0CScrollBar@@QAE@XZ      67dac71e f   mfc100d:mfc100d.dll
 0001:0002b724       ?DDX_Text@@YGXPAVCDataExchange@@HAAH@Z 67dac724 f   mfc100d:mfc100d.dll
 0001:0002b72a       ?DDV_MinMaxInt@@YGXPAVCDataExchange@@HHH@Z 67dac72a f   mfc100d:mfc100d.dll
 0001:0002b730       ?GetDlgCtrlID@CWnd@@QBEHXZ 67dac730 f   mfc100d:mfc100d.dll
 0001:0002b736       ?DDX_Radio@@YGXPAVCDataExchange@@HAAH@Z 67dac736 f   mfc100d:mfc100d.dll
 0001:0002b73c       ?DDX_Text@@YGXPAVCDataExchange@@HAAM@Z 67dac73c f   mfc100d:mfc100d.dll
 0001:0002b742       ?OnShowWindow@CWnd@@IAEXHI@Z 67dac742 f   mfc100d:mfc100d.dll
 0001:0002b748       ?AfxFindResourceHandle@@YGPAUHINSTANCE__@@PBD0@Z 67dac748 f   mfc100d:mfc100d.dll
 0001:0002b74e       ?DDV_MinMaxUInt@@YGXPAVCDataExchange@@III@Z 67dac74e f   mfc100d:mfc100d.dll
 0001:0002b754       ??3@YAXPAXPBDH@Z           67dac754 f   mfc100d:mfc100d.dll
 0001:0002b75a       ??2@YAPAXIPBDH@Z           67dac75a f   mfc100d:mfc100d.dll
 0001:0002b760       ?DDV_MinMaxDWord@@YGXPAVCDataExchange@@KKK@Z 67dac760 f   mfc100d:mfc100d.dll
 0001:0002b766       ?IsWindowEnabled@CWnd@@QBEHXZ 67dac766 f   mfc100d:mfc100d.dll
 0001:0002b76c       ?InsertItem@CTabCtrl@@QAEJHPBD@Z 67dac76c f   mfc100d:mfc100d.dll
 0001:0002b772       ?Format@?$CStringT@DV?$StrTraitMFC_DLL@DV?$ChTraitsCRT@D@ATL@@@@@ATL@@QAAXPBDZZ 67dac772 f   mfc100d:mfc100d.dll
 0001:0002b778       ?GetCurSel@CTabCtrl@@QBEHXZ 67dac778 f   mfc100d:mfc100d.dll
 0001:0002b77e       ?GetDlgItemTextA@CWnd@@QBEHHPADH@Z 67dac77e f   mfc100d:mfc100d.dll
 0001:0002b784       ?SetDroppedWidth@CComboBox@@QAEHI@Z 67dac784 f   mfc100d:mfc100d.dll
 0001:0002b78a       ?GetText@CListBox@@QBEHHPAD@Z 67dac78a f   mfc100d:mfc100d.dll
 0001:0002b790       ?GetCount@CListBox@@QBEHXZ 67dac790 f   mfc100d:mfc100d.dll
 0001:0002b796       ?Dir@CListBox@@QAEHIPBD@Z  67dac796 f   mfc100d:mfc100d.dll
 0001:0002b79c       ?ResetContent@CListBox@@QAEXXZ 67dac79c f   mfc100d:mfc100d.dll
 0001:0002b7a2       ??_U@YAPAXIPBDH@Z          67dac7a2 f   mfc100d:mfc100d.dll
 0001:0002b7a8       ?EndWaitCursor@CCmdTarget@@QAEXXZ 67dac7a8 f   mfc100d:mfc100d.dll
 0001:0002b7ae       ?BeginWaitCursor@CCmdTarget@@QAEXXZ 67dac7ae f   mfc100d:mfc100d.dll
 0001:0002b7b4       ??Y?$CStringT@DV?$StrTraitMFC_DLL@DV?$ChTraitsCRT@D@ATL@@@@@ATL@@QAEAAV01@PBD@Z 67dac7b4 f   mfc100d:mfc100d.dll
 0001:0002b7ba       ?Replace@?$CStringT@DV?$StrTraitMFC_DLL@DV?$ChTraitsCRT@D@ATL@@@@@ATL@@QAEHPBD0@Z 67dac7ba f   mfc100d:mfc100d.dll
 0001:0002b7c0       ?StringLength@?$CSimpleStringT@D$00@ATL@@SAHPBD@Z 67dac7c0 f   mfc100d:mfc100d.dll
 0001:0002b7c6       ?DDX_Text@@YGXPAVCDataExchange@@HAAV?$CStringT@DV?$StrTraitMFC_DLL@DV?$ChTraitsCRT@D@ATL@@@@@ATL@@@Z 67dac7c6 f   mfc100d:mfc100d.dll
 0001:0002b7cc       ??1CSliderCtrl@@UAE@XZ     67dac7cc f   mfc100d:mfc100d.dll
 0001:0002b7d2       ??0CSliderCtrl@@QAE@XZ     67dac7d2 f   mfc100d:mfc100d.dll
 0001:0002b7d8       ?DDX_Text@@YGXPAVCDataExchange@@HAAJ@Z 67dac7d8 f   mfc100d:mfc100d.dll
 0001:0002b7de       ?CheckRadioButton@CWnd@@QAEXHHH@Z 67dac7de f   mfc100d:mfc100d.dll
 0001:0002b7e4       ?SetPos@CSliderCtrl@@QAEXH@Z 67dac7e4 f   mfc100d:mfc100d.dll
 0001:0002b7ea       ?SetPageSize@CSliderCtrl@@QAEHH@Z 67dac7ea f   mfc100d:mfc100d.dll
 0001:0002b7f0       ?SetTicFreq@CSliderCtrl@@QAEXH@Z 67dac7f0 f   mfc100d:mfc100d.dll
 0001:0002b7f6       ?SetRange@CSliderCtrl@@QAEXHHH@Z 67dac7f6 f   mfc100d:mfc100d.dll
 0001:0002b7fc       ?OnHScroll@CWnd@@IAEXIIPAVCScrollBar@@@Z 67dac7fc f   mfc100d:mfc100d.dll
 0001:0002b802       ??1CStatic@@UAE@XZ         67dac802 f   mfc100d:mfc100d.dll
 0001:0002b808       ??1CButton@@UAE@XZ         67dac808 f   mfc100d:mfc100d.dll
 0001:0002b80e       ??0CStatic@@QAE@XZ         67dac80e f   mfc100d:mfc100d.dll
 0001:0002b814       ??0CButton@@QAE@XZ         67dac814 f   mfc100d:mfc100d.dll
 0001:0002b81a       ?Find@?$CStringT@DV?$StrTraitMFC_DLL@DV?$ChTraitsCRT@D@ATL@@@@@ATL@@QBEHPBDH@Z 67dac81a f   mfc100d:mfc100d.dll
 0001:0002b820       ?ShowWindow@CWnd@@QAEHH@Z  67dac820 f   mfc100d:mfc100d.dll
 0001:0002b826       ?SetWindowTextA@CWnd@@QAEXPBD@Z 67dac826 f   mfc100d:mfc100d.dll
 0001:0002b82c       ?OnDestroy@CWnd@@IAEXXZ    67dac82c f   mfc100d:mfc100d.dll
 0001:0002b832       ?GetParent@CWnd@@QBEPAV1@XZ 67dac832 f   mfc100d:mfc100d.dll
 0001:0002b838       ?SetCurSel@CListBox@@QAEHH@Z 67dac838 f   mfc100d:mfc100d.dll
 0001:0002b83e       ?AddString@CListBox@@QAEHPBD@Z 67dac83e f   mfc100d:mfc100d.dll
 0001:0002b844       ?ReleaseDC@CWnd@@QAEHPAVCDC@@@Z 67dac844 f   mfc100d:mfc100d.dll
 0001:0002b84a       ?SetHorizontalExtent@CListBox@@QAEXH@Z 67dac84a f   mfc100d:mfc100d.dll
 0001:0002b850       ?GetHorizontalExtent@CListBox@@QBEHXZ 67dac850 f   mfc100d:mfc100d.dll
 0001:0002b856       ?GetTextExtent@CDC@@QBE?AVCSize@@ABV?$CStringT@DV?$StrTraitMFC_DLL@DV?$ChTraitsCRT@D@ATL@@@@@ATL@@@Z 67dac856 f   mfc100d:mfc100d.dll
 0001:0002b85c       ?GetDC@CWnd@@QAEPAVCDC@@XZ 67dac85c f   mfc100d:mfc100d.dll
 0001:0002b862       ??Y?$CStringT@DV?$StrTraitMFC_DLL@DV?$ChTraitsCRT@D@ATL@@@@@ATL@@QAEAAV01@ABV?$CSimpleStringT@D$00@1@@Z 67dac862 f   mfc100d:mfc100d.dll
 0001:0002b868       ??1CWaitCursor@@QAE@XZ     67dac868 f   mfc100d:mfc100d.dll
 0001:0002b86e       ??0CWaitCursor@@QAE@XZ     67dac86e f   mfc100d:mfc100d.dll
 0001:0002b874       ??0CBrush@@QAE@XZ          67dac874 f   mfc100d:mfc100d.dll
 0001:0002b87a       ?MoveWindow@CWnd@@QAEXPBUtagRECT@@H@Z 67dac87a f   mfc100d:mfc100d.dll
 0001:0002b880       ?GetClientRect@CWnd@@QBEXPAUtagRECT@@@Z 67dac880 f   mfc100d:mfc100d.dll
 0001:0002b886       ?GetSafeHandle@CGdiObject@@QBEPAXXZ 67dac886 f   mfc100d:mfc100d.dll
 0001:0002b88c       ?OnCtlColor@CWnd@@IAEPAUHBRUSH__@@PAVCDC@@PAV1@I@Z 67dac88c f   mfc100d:mfc100d.dll
 0001:0002b892       ?SetButtonStyle@CButton@@QAEXIH@Z 67dac892 f   mfc100d:mfc100d.dll
 0001:0002b898       ?GetWindowTextA@CWnd@@QBEXAAV?$CStringT@DV?$StrTraitMFC_DLL@DV?$ChTraitsCRT@D@ATL@@@@@ATL@@@Z 67dac898 f   mfc100d:mfc100d.dll
 0001:0002b89e       ??1CBrush@@UAE@XZ          67dac89e f   mfc100d:mfc100d.dll
 0001:0002b8a4       ?RedrawWindow@CWnd@@QAEHPBUtagRECT@@PAVCRgn@@I@Z 67dac8a4 f   mfc100d:mfc100d.dll
 0001:0002b8aa       ?ModifyStyle@CWnd@@QAEHKKI@Z 67dac8aa f   mfc100d:mfc100d.dll
 0001:0002b8b0       ??0CRectTracker@@QAE@XZ    67dac8b0 f   mfc100d:mfc100d.dll
 0001:0002b8b6       ?DrawTrackerRect@CRectTracker@@UAEXPBUtagRECT@@PAVCWnd@@PAVCDC@@1@Z 67dac8b6 f   mfc100d:mfc100d.dll
 0001:0002b8bc       ?OnChangedRect@CRectTracker@@UAEXABVCRect@@@Z 67dac8bc f   mfc100d:mfc100d.dll
 0001:0002b8c2       ?GetHandleMask@CRectTracker@@UBEIXZ 67dac8c2 f   mfc100d:mfc100d.dll
 0001:0002b8c8       ?GetHandleSize@CRectTracker@@MBEHPBUtagRECT@@@Z 67dac8c8 f   mfc100d:mfc100d.dll
 0001:0002b8ce       ?GetScrollInfo@CWnd@@QAEHHPAUtagSCROLLINFO@@I@Z 67dac8ce f   mfc100d:mfc100d.dll
 0001:0002b8d4       ?GetScrollInfo@CScrollBar@@QAEHPAUtagSCROLLINFO@@I@Z 67dac8d4 f   mfc100d:mfc100d.dll
 0001:0002b8da       ?SetScrollInfo@CWnd@@QAEHHPAUtagSCROLLINFO@@H@Z 67dac8da f   mfc100d:mfc100d.dll
 0001:0002b8e0       ?SetScrollInfo@CScrollBar@@QAEHPAUtagSCROLLINFO@@H@Z 67dac8e0 f   mfc100d:mfc100d.dll
 0001:0002b8e6       ?FillSolidRect@CDC@@QAEXPBUtagRECT@@K@Z 67dac8e6 f   mfc100d:mfc100d.dll
 0001:0002b8ec       ?GetBkColor@CDC@@QBEKXZ    67dac8ec f   mfc100d:mfc100d.dll
 0001:0002b8f2       ?InvalidateRect@CWnd@@QAEXPBUtagRECT@@H@Z 67dac8f2 f   mfc100d:mfc100d.dll
 0001:0002b8f8       ?MoveWindow@CWnd@@QAEXHHHHH@Z 67dac8f8 f   mfc100d:mfc100d.dll
 0001:0002b8fe       ?ScreenToClient@CWnd@@QBEXPAUtagRECT@@@Z 67dac8fe f   mfc100d:mfc100d.dll
 0001:0002b904       ?ShowScrollBar@CScrollBar@@QAEXH@Z 67dac904 f   mfc100d:mfc100d.dll
 0001:0002b90a       ??1CRgn@@UAE@XZ            67dac90a f   mfc100d:mfc100d.dll
 0001:0002b910       ??1CClientDC@@UAE@XZ       67dac910 f   mfc100d:mfc100d.dll
 0001:0002b916       ?Draw@CRectTracker@@QBEXPAVCDC@@@Z 67dac916 f   mfc100d:mfc100d.dll
 0001:0002b91c       ?SetWindowOrg@CDC@@QAE?AVCPoint@@HH@Z 67dac91c f   mfc100d:mfc100d.dll
 0001:0002b922       ?SelectClipRgn@CDC@@QAEHPAVCRgn@@@Z 67dac922 f   mfc100d:mfc100d.dll
 0001:0002b928       ??0CClientDC@@QAE@PAVCWnd@@@Z 67dac928 f   mfc100d:mfc100d.dll
 0001:0002b92e       ?CreateRectRgnIndirect@CRgn@@QAEHPBUtagRECT@@@Z 67dac92e f   mfc100d:mfc100d.dll
 0001:0002b934       ??0CRgn@@QAE@XZ            67dac934 f   mfc100d:mfc100d.dll
 0001:0002b93a       ?Track@CRectTracker@@QAEHPAVCWnd@@VCPoint@@H0@Z 67dac93a f   mfc100d:mfc100d.dll
 0001:0002b940       ?TrackRubberBand@CRectTracker@@QAEHPAVCWnd@@VCPoint@@H@Z 67dac940 f   mfc100d:mfc100d.dll
 0001:0002b946       ?HitTest@CRectTracker@@QBEHVCPoint@@@Z 67dac946 f   mfc100d:mfc100d.dll
 0001:0002b94c       ?SetCursor@CRectTracker@@QBEHPAVCWnd@@I@Z 67dac94c f   mfc100d:mfc100d.dll
 0001:0002b952       ?ScreenToClient@CWnd@@QBEXPAUtagPOINT@@@Z 67dac952 f   mfc100d:mfc100d.dll
 0001:0002b958       ??1CRectTracker@@UAE@XZ    67dac958 f   mfc100d:mfc100d.dll
 0001:0002b95e       ?GetThisInterfaceMap@CWnd@@KGPBUAFX_INTERFACEMAP@@XZ 67dac95e f   mfc100d:mfc100d.dll
 0001:0002b964       ?GetThisDispatchMap@CCmdTarget@@KGPBUAFX_DISPMAP@@XZ 67dac964 f   mfc100d:mfc100d.dll
 0001:0002b96a       ?DDX_Text@@YGXPAVCDataExchange@@HAAI@Z 67dac96a f   mfc100d:mfc100d.dll
 0001:0002b970       ?GetThisClass@CFileDialog@@SGPAUCRuntimeClass@@XZ 67dac970 f   mfc100d:mfc100d.dll
 0001:0002b976       ?Dump@CFileDialog@@UBEXAAVCDumpContext@@@Z 67dac976 f   mfc100d:mfc100d.dll
 0001:0002b97c       ?GetInterfaceMap@CFileDialog@@MBEPBUAFX_INTERFACEMAP@@XZ 67dac97c f   mfc100d:mfc100d.dll
 0001:0002b982       ?OnNotify@CFileDialog@@MAEHIJPAJ@Z 67dac982 f   mfc100d:mfc100d.dll
 0001:0002b988       ?OnOK@CCommonDialog@@MAEXXZ 67dac988 f   mfc100d:mfc100d.dll
 0001:0002b98e       ?OnCancel@CCommonDialog@@MAEXXZ 67dac98e f   mfc100d:mfc100d.dll
 0001:0002b994       ?UpdateOFNFromShellDialog@CFileDialog@@UAEXXZ 67dac994 f   mfc100d:mfc100d.dll
 0001:0002b99a       ?OnShareViolation@CFileDialog@@MAEIPBD@Z 67dac99a f   mfc100d:mfc100d.dll
 0001:0002b9a0       ?OnFileNameOK@CFileDialog@@MAEHXZ 67dac9a0 f   mfc100d:mfc100d.dll
 0001:0002b9a6       ?OnLBSelChangedNotify@CFileDialog@@MAEXIII@Z 67dac9a6 f   mfc100d:mfc100d.dll
 0001:0002b9ac       ?OnInitDone@CFileDialog@@MAEXXZ 67dac9ac f   mfc100d:mfc100d.dll
 0001:0002b9b2       ?OnFileNameChange@CFileDialog@@MAEXXZ 67dac9b2 f   mfc100d:mfc100d.dll
 0001:0002b9b8       ?OnFolderChange@CFileDialog@@MAEXXZ 67dac9b8 f   mfc100d:mfc100d.dll
 0001:0002b9be       ?OnItemSelected@CFileDialog@@MAEXKK@Z 67dac9be f   mfc100d:mfc100d.dll
 0001:0002b9c4       ?OnButtonClicked@CFileDialog@@MAEXK@Z 67dac9c4 f   mfc100d:mfc100d.dll
 0001:0002b9ca       ?OnCheckButtonToggled@CFileDialog@@MAEXKH@Z 67dac9ca f   mfc100d:mfc100d.dll
 0001:0002b9d0       ?OnControlActivating@CFileDialog@@MAEXK@Z 67dac9d0 f   mfc100d:mfc100d.dll
 0001:0002b9d6       ?AfxAssertValidObject@@YGXPBVCObject@@PBDH@Z 67dac9d6 f   mfc100d:mfc100d.dll
 0001:0002b9dc       ?GetFileTitle@CFileDialog@@QBE?AV?$CStringT@DV?$StrTraitMFC_DLL@DV?$ChTraitsCRT@D@ATL@@@@@ATL@@XZ 67dac9dc f   mfc100d:mfc100d.dll
 0001:0002b9e2       ?GetForegroundWindow@CWnd@@SGPAV1@XZ 67dac9e2 f   mfc100d:mfc100d.dll
 0001:0002b9e8       ?GetThisMessageMap@CCommonDialog@@KGPBUAFX_MSGMAP@@XZ 67dac9e8 f   mfc100d:mfc100d.dll
 0001:0002b9ee       ?AfxGetModuleState@@YGPAVAFX_MODULE_STATE@@XZ 67dac9ee f   mfc100d:mfc100d.dll
 0001:0002b9f4       ??3CObject@@SGXPAXPBDH@Z   67dac9f4 f   mfc100d:mfc100d.dll
 0001:0002b9fa       ??0CDynLinkLibrary@@QAE@AAUAFX_EXTENSION_MODULE@@H@Z 67dac9fa f   mfc100d:mfc100d.dll
 0001:0002ba00       ??2CObject@@SGPAXIPBDH@Z   67daca00 f   mfc100d:mfc100d.dll
 0001:0002ba06       ?AfxTermExtensionModule@@YGXAAUAFX_EXTENSION_MODULE@@H@Z 67daca06 f   mfc100d:mfc100d.dll
 0001:0002ba0c       ?AfxInitExtensionModule@@YGHAAUAFX_EXTENSION_MODULE@@PAUHINSTANCE__@@@Z 67daca0c f   mfc100d:mfc100d.dll
 0001:0002ba12       ?AdjustRect@CRectTracker@@UAEXHPAUtagRECT@@@Z 67daca12 f   mfc100d:mfc100d.dll
 0001:0002ba18       ??1CSpinButtonCtrl@@UAE@XZ 67daca18 f   mfc100d:mfc100d.dll
 0001:0002ba1e       ?DDV_MinMaxFloat@@YGXPAVCDataExchange@@ABMMM@Z 67daca1e f   mfc100d:mfc100d.dll
 0001:0002ba24       ?DDX_Text@@YGXPAVCDataExchange@@HAAK@Z 67daca24 f   mfc100d:mfc100d.dll
 0001:0002ba2a       ??0CSpinButtonCtrl@@QAE@XZ 67daca2a f   mfc100d:mfc100d.dll
 0001:0002ba30       ??_Estringdispid@CComTypeInfoHolder@ATL@@QAEPAXI@Z 67daca30 f i mfcs100d:nolib.obj
 0001:0002baa0       ??1stringdispid@CComTypeInfoHolder@ATL@@QAE@XZ 67dacaa0 f i mfcs100d:nolib.obj
 0001:0002bac0       ??1CComBSTR@ATL@@QAE@XZ    67dacac0 f i mfcs100d:nolib.obj
 0001:0002bae0       __RTC_CheckEsp             67dacae0 f   msvcrtd:_stack_.obj
 0001:0002bb10       @_RTC_CheckStackVars@8     67dacb10 f   msvcrtd:_stack_.obj
 0001:0002bb80       @_RTC_AllocaHelper@12      67dacb80 f   msvcrtd:_stack_.obj
 0001:0002bbc0       @_RTC_CheckStackVars2@12   67dacbc0 f   msvcrtd:_stack_.obj
 0001:0002bca0       __RTC_InitBase             67dacca0 f   msvcrtd:_init_.obj
 0001:0002bcd0       __RTC_Shutdown             67daccd0 f   msvcrtd:_init_.obj
 0001:0002bcf0       ??0type_info@@AAE@ABV0@@Z  67daccf0 f   msvcrtd:ti_inst.obj
 0001:0002bd10       ??_Etype_info@@UAEPAXI@Z   67dacd10 f i msvcrtd:ti_inst.obj
 0001:0002bd80       ??4type_info@@AAEAAV0@ABV0@@Z 67dacd80 f   msvcrtd:ti_inst.obj
 0001:0002bda0       ??_M@YGXPAXIHP6EX0@Z@Z     67dacda0 f   msvcrtd:ehvecdtr.obj
 0001:0002be60       ?__ArrayUnwind@@YGXPAXIHP6EX0@Z@Z 67dace60 f   msvcrtd:ehvecdtr.obj
 0001:0002bf1e       ___CxxFrameHandler3        67dacf1e f   msvcrtd:MSVCR100D.dll
 0001:0002bf30       @__security_check_cookie@4 67dacf30 f   msvcrtd:secchk.obj
 0001:0002bf40       _strstr                    67dacf40 f   msvcrtd:MSVCR100D.dll
 0001:0002bf46       __splitpath_s              67dacf46 f   msvcrtd:MSVCR100D.dll
 0001:0002bf4c       _memset                    67dacf4c f   msvcrtd:MSVCR100D.dll
 0001:0002bf52       _strrchr                   67dacf52 f   msvcrtd:MSVCR100D.dll
 0001:0002bf58       __vsnprintf                67dacf58 f   msvcrtd:MSVCR100D.dll
 0001:0002bf60       _strlen                    67dacf60 f   msvcrtd:MSVCR100D.dll
 0001:0002bf66       __stricmp                  67dacf66 f   msvcrtd:MSVCR100D.dll
 0001:0002bf70       __onexit                   67dacf70 f   msvcrtd:atonexit.obj
 0001:0002c070       _atexit                    67dad070 f   msvcrtd:atonexit.obj
 0001:0002c090       __ftol2_sse                67dad090 f   msvcrtd:ftol2.obj
 0001:0002c099       __ftol2_pentium4           67dad099 f   msvcrtd:ftol2.obj
 0001:0002c0ac       __ftol2_sse_excpt          67dad0ac f   msvcrtd:ftol2.obj
 0001:0002c0c6       __ftol2                    67dad0c6 f   msvcrtd:ftol2.obj
 0001:0002c13c       _strcmp                    67dad13c f   msvcrtd:MSVCR100D.dll
 0001:0002c142       _floor                     67dad142 f   msvcrtd:MSVCR100D.dll
 0001:0002c1d0       __CRT_INIT@12              67dad1d0 f   msvcrtd:crtdll.obj
 0001:0002c4c0       _NtCurrentTeb              67dad4c0 f i msvcrtd:crtdll.obj
 0001:0002c4d0       __DllMainCRTStartup@12     67dad4d0 f   msvcrtd:crtdll.obj
 0001:0002c6d0       ?_RTC_Failure@@YAXPAXH@Z   67dad6d0 f   msvcrtd:_error_.obj
 0001:0002ca80       ?_RTC_StackFailure@@YAXPAXPBD@Z 67dada80 f   msvcrtd:_error_.obj
 0001:0002cb80       ?_RTC_AllocaFailure@@YAXPAXPAU_RTC_ALLOCA_NODE@@H@Z 67dadb80 f   msvcrtd:_error_.obj
 0001:0002cd30       __RTC_UninitUse            67dadd30 f   msvcrtd:_error_.obj
 0001:0002ce20       __RTC_NumErrors            67dade20 f   msvcrtd:_userapi_.obj
 0001:0002ce30       __RTC_GetErrDesc           67dade30 f   msvcrtd:_userapi_.obj
 0001:0002ce50       __RTC_SetErrorType         67dade50 f   msvcrtd:_userapi_.obj
 0001:0002ce80       __RTC_SetErrorFunc         67dade80 f   msvcrtd:_userapi_.obj
 0001:0002cea0       __RTC_SetErrorFuncW        67dadea0 f   msvcrtd:_userapi_.obj
 0001:0002cec0       ?_RTC_GetErrorFunc@@YAP6AHHPBDH00ZZPBX@Z 67dadec0 f   msvcrtd:_userapi_.obj
 0001:0002ced0       ?_RTC_GetErrorFuncW@@YAP6AHHPB_WH00ZZPBX@Z 67daded0 f   msvcrtd:_userapi_.obj
 0001:0002ced6       __CRT_RTC_INITW            67daded6 f   msvcrtd:MSVCR100D.dll
 0001:0002cee0       __except_handler4          67dadee0 f   msvcrtd:chandler4gs.obj
 0001:0002cf0a       ?terminate@@YAXXZ          67dadf0a f   msvcrtd:MSVCR100D.dll
 0001:0002cf10       ___report_gsfailure        67dadf10 f   msvcrtd:gs_report.obj
 0001:0002d01e       __unlock                   67dae01e f   msvcrtd:MSVCR100D.dll
 0001:0002d024       ___dllonexit               67dae024 f   msvcrtd:MSVCR100D.dll
 0001:0002d02a       __lock                     67dae02a f   msvcrtd:MSVCR100D.dll
 0001:0002d030       ___sse2_available_init     67dae030 f   msvcrtd:cpu_disp.obj
 0001:0002d050       ___clean_type_info_names   67dae050 f   msvcrtd:tncleanup.obj
 0001:0002d070       __RTC_Initialize           67dae070 f   msvcrtd:_initsect_.obj
 0001:0002d0a0       __RTC_Terminate            67dae0a0 f   msvcrtd:_initsect_.obj
 0001:0002d0c6       __malloc_dbg               67dae0c6 f   msvcrtd:MSVCR100D.dll
 0001:0002d0cc       __free_dbg                 67dae0cc f   msvcrtd:MSVCR100D.dll
 0001:0002d0d2       __encoded_null             67dae0d2 f   msvcrtd:MSVCR100D.dll
 0001:0002d0d8       __CrtSetCheckCount         67dae0d8 f   msvcrtd:MSVCR100D.dll
 0001:0002d0e0       __ValidateImageBase        67dae0e0 f   msvcrtd:pesect.obj
 0001:0002d140       __FindPESection            67dae140 f   msvcrtd:pesect.obj
 0001:0002d1c0       __IsNonwritableInCurrentImage 67dae1c0 f   msvcrtd:pesect.obj
 0001:0002d2d2       __initterm                 67dae2d2 f   msvcrtd:MSVCR100D.dll
 0001:0002d2d8       __initterm_e               67dae2d8 f   msvcrtd:MSVCR100D.dll
 0001:0002d2de       __amsg_exit                67dae2de f   msvcrtd:MSVCR100D.dll
 0001:0002d2f0       ___security_init_cookie    67dae2f0 f   msvcrtd:gs_support.obj
 0001:0002d3d0       ___CppXcptFilter           67dae3d0 f   msvcrtd:MSVCR100D.dll
 0001:0002d3e0       ?_RTC_GetSrcLine@@YAHPAEPA_WKPAH1K@Z 67dae3e0 f   msvcrtd:_pdblkup_.obj
 0001:0002da22       ?_type_info_dtor_internal_method@type_info@@QAEXXZ 67daea22 f   msvcrtd:MSVCR100D.dll
 0001:0002da22       ??1type_info@@UAE@XZ       67daea22 f   msvcrtd:MSVCR100D.dll
 0001:0002da28       __except_handler4_common   67daea28 f   msvcrtd:MSVCR100D.dll
 0001:0002da2e       __crt_debugger_hook        67daea2e f   msvcrtd:MSVCR100D.dll
 0001:0002da34       ___clean_type_info_names_internal 67daea34 f   msvcrtd:MSVCR100D.dll
 0001:0002da3a       __wmakepath_s              67daea3a f   msvcrtd:MSVCR100D.dll
 0001:0002da40       _wcscpy_s                  67daea40 f   msvcrtd:MSVCR100D.dll
 0001:0002da46       __wsplitpath_s             67daea46 f   msvcrtd:MSVCR100D.dll
 0001:0002da4c       _GetTickCount@0            67daea4c f   kernel32:KERNEL32.dll
 0001:0002da52       _GetPrivateProfileStringA@24 67daea52 f   kernel32:KERNEL32.dll
 0001:0002da58       _IsBadReadPtr@8            67daea58 f   kernel32:KERNEL32.dll
 0001:0002da5e       _GetCurrentDirectoryA@8    67daea5e f   kernel32:KERNEL32.dll
 0001:0002da64       _GetEnvironmentVariableA@12 67daea64 f   kernel32:KERNEL32.dll
 0001:0002da6a       _OpenFile@12               67daea6a f   kernel32:KERNEL32.dll
 0001:0002da70       _WaitForSingleObject@8     67daea70 f   kernel32:KERNEL32.dll
 0001:0002da76       _CreateProcessA@40         67daea76 f   kernel32:KERNEL32.dll
 0001:0002da7c       _GetStartupInfoA@4         67daea7c f   kernel32:KERNEL32.dll
 0001:0002da82       _Sleep@4                   67daea82 f   kernel32:KERNEL32.dll
 0001:0002da88       _EncodePointer@4           67daea88 f   kernel32:KERNEL32.dll
 0001:0002da8e       _DecodePointer@4           67daea8e f   kernel32:KERNEL32.dll
 0001:0002da94       _InterlockedExchange@8     67daea94 f   kernel32:KERNEL32.dll
 0001:0002da9a       _InterlockedCompareExchange@12 67daea9a f   kernel32:KERNEL32.dll
 0001:0002daa0       _WideCharToMultiByte@32    67daeaa0 f   kernel32:KERNEL32.dll
 0001:0002daa6       _IsDebuggerPresent@0       67daeaa6 f   kernel32:KERNEL32.dll
 0001:0002daac       _MultiByteToWideChar@24    67daeaac f   kernel32:KERNEL32.dll
 0001:0002dab2       _RaiseException@16         67daeab2 f   kernel32:KERNEL32.dll
 0001:0002dab8       _lstrlenA@4                67daeab8 f   kernel32:KERNEL32.dll
 0001:0002dabe       _GetProcAddress@8          67daeabe f   kernel32:KERNEL32.dll
 0001:0002dac4       _LoadLibraryW@4            67daeac4 f   kernel32:KERNEL32.dll
 0001:0002daca       _TerminateProcess@8        67daeaca f   kernel32:KERNEL32.dll
 0001:0002dad0       _GetCurrentProcess@0       67daead0 f   kernel32:KERNEL32.dll
 0001:0002dad6       _UnhandledExceptionFilter@4 67daead6 f   kernel32:KERNEL32.dll
 0001:0002dadc       _SetUnhandledExceptionFilter@4 67daeadc f   kernel32:KERNEL32.dll
 0001:0002dae2       _IsProcessorFeaturePresent@4 67daeae2 f   kernel32:KERNEL32.dll
 0001:0002dae8       _QueryPerformanceCounter@4 67daeae8 f   kernel32:KERNEL32.dll
 0001:0002daee       _GetCurrentThreadId@0      67daeaee f   kernel32:KERNEL32.dll
 0001:0002daf4       _GetCurrentProcessId@0     67daeaf4 f   kernel32:KERNEL32.dll
 0001:0002dafa       _GetSystemTimeAsFileTime@4 67daeafa f   kernel32:KERNEL32.dll
 0001:0002db00       _HeapFree@12               67daeb00 f   kernel32:KERNEL32.dll
 0001:0002db06       _HeapAlloc@12              67daeb06 f   kernel32:KERNEL32.dll
 0001:0002db0c       _GetProcessHeap@0          67daeb0c f   kernel32:KERNEL32.dll
 0001:0002db12       _GetModuleFileNameW@12     67daeb12 f   kernel32:KERNEL32.dll
 0001:0002db18       _VirtualQuery@12           67daeb18 f   kernel32:KERNEL32.dll
 0001:0002db1e       _GetModuleHandleW@4        67daeb1e f   kernel32:KERNEL32.dll
 0001:0002db24       _FreeLibrary@4             67daeb24 f   kernel32:KERNEL32.dll
 0001:0002db2a       _GetFocus@0                67daeb2a f   user32:USER32.dll
 0001:0002db30       _SetDlgItemTextA@12        67daeb30 f   user32:USER32.dll
 0001:0002db36       _SetForegroundWindow@4     67daeb36 f   user32:USER32.dll
 0001:0002db3c       _IsIconic@4                67daeb3c f   user32:USER32.dll
 0001:0002db42       _GetCursorPos@4            67daeb42 f   user32:USER32.dll
 0001:0002db48       _GetSaveFileNameA@4        67daeb48 f   comdlg32:COMDLG32.dll
 0001:0002db50       ??0CSize@@QAE@XZ           67daeb50 f   atlsd:atltypes.obj
 0001:0002db80       ??0CSize@@QAE@HH@Z         67daeb80 f   atlsd:atltypes.obj
 0001:0002dbb0       ??0CSize@@QAE@UtagSIZE@@@Z 67daebb0 f   atlsd:atltypes.obj
 0001:0002dbd0       ??0CSize@@QAE@UtagPOINT@@@Z 67daebd0 f   atlsd:atltypes.obj
 0001:0002dbf0       ??0CSize@@QAE@K@Z          67daebf0 f   atlsd:atltypes.obj
 0001:0002dc30       ??8CSize@@QBEHUtagSIZE@@@Z 67daec30 f   atlsd:atltypes.obj
 0001:0002dc70       ??9CSize@@QBEHUtagSIZE@@@Z 67daec70 f   atlsd:atltypes.obj
 0001:0002dcb0       ??YCSize@@QAEXUtagSIZE@@@Z 67daecb0 f   atlsd:atltypes.obj
 0001:0002dce0       ??ZCSize@@QAEXUtagSIZE@@@Z 67daece0 f   atlsd:atltypes.obj
 0001:0002dd10       ?SetSize@CSize@@QAEXHH@Z   67daed10 f   atlsd:atltypes.obj
 0001:0002dd30       ??HCSize@@QBE?AV0@UtagSIZE@@@Z 67daed30 f   atlsd:atltypes.obj
 0001:0002dd60       ??GCSize@@QBE?AV0@UtagSIZE@@@Z 67daed60 f   atlsd:atltypes.obj
 0001:0002dd90       ??GCSize@@QBE?AV0@XZ       67daed90 f   atlsd:atltypes.obj
 0001:0002ddc0       ??HCSize@@QBE?AVCPoint@@UtagPOINT@@@Z 67daedc0 f   atlsd:atltypes.obj
 0001:0002ddf0       ??GCSize@@QBE?AVCPoint@@UtagPOINT@@@Z 67daedf0 f   atlsd:atltypes.obj
 0001:0002de20       ??HCSize@@QBE?AVCRect@@PBUtagRECT@@@Z 67daee20 f   atlsd:atltypes.obj
 0001:0002de80       ??GCSize@@QBE?AVCRect@@PBUtagRECT@@@Z 67daee80 f   atlsd:atltypes.obj
 0001:0002dee0       ??0CPoint@@QAE@XZ          67daeee0 f   atlsd:atltypes.obj
 0001:0002df10       ??0CPoint@@QAE@HH@Z        67daef10 f   atlsd:atltypes.obj
 0001:0002df40       ??0CPoint@@QAE@UtagPOINT@@@Z 67daef40 f   atlsd:atltypes.obj
 0001:0002df60       ??0CPoint@@QAE@UtagSIZE@@@Z 67daef60 f   atlsd:atltypes.obj
 0001:0002df80       ??0CPoint@@QAE@J@Z         67daef80 f   atlsd:atltypes.obj
 0001:0002dfc0       ?Offset@CPoint@@QAEXHH@Z   67daefc0 f   atlsd:atltypes.obj
 0001:0002dff0       ?Offset@CPoint@@QAEXUtagPOINT@@@Z 67daeff0 f   atlsd:atltypes.obj
 0001:0002e020       ?Offset@CPoint@@QAEXUtagSIZE@@@Z 67daf020 f   atlsd:atltypes.obj
 0001:0002e050       ?SetPoint@CPoint@@QAEXHH@Z 67daf050 f   atlsd:atltypes.obj
 0001:0002e070       ??8CPoint@@QBEHUtagPOINT@@@Z 67daf070 f   atlsd:atltypes.obj
 0001:0002e0b0       ??9CPoint@@QBEHUtagPOINT@@@Z 67daf0b0 f   atlsd:atltypes.obj
 0001:0002e0f0       ??YCPoint@@QAEXUtagSIZE@@@Z 67daf0f0 f   atlsd:atltypes.obj
 0001:0002e120       ??ZCPoint@@QAEXUtagSIZE@@@Z 67daf120 f   atlsd:atltypes.obj
 0001:0002e150       ??YCPoint@@QAEXUtagPOINT@@@Z 67daf150 f   atlsd:atltypes.obj
 0001:0002e180       ??ZCPoint@@QAEXUtagPOINT@@@Z 67daf180 f   atlsd:atltypes.obj
 0001:0002e1b0       ??HCPoint@@QBE?AV0@UtagSIZE@@@Z 67daf1b0 f   atlsd:atltypes.obj
 0001:0002e1e0       ??GCPoint@@QBE?AV0@UtagSIZE@@@Z 67daf1e0 f   atlsd:atltypes.obj
 0001:0002e210       ??GCPoint@@QBE?AV0@XZ      67daf210 f   atlsd:atltypes.obj
 0001:0002e240       ??HCPoint@@QBE?AV0@UtagPOINT@@@Z 67daf240 f   atlsd:atltypes.obj
 0001:0002e270       ??GCPoint@@QBE?AVCSize@@UtagPOINT@@@Z 67daf270 f   atlsd:atltypes.obj
 0001:0002e2a0       ??HCPoint@@QBE?AVCRect@@PBUtagRECT@@@Z 67daf2a0 f   atlsd:atltypes.obj
 0001:0002e300       ??GCPoint@@QBE?AVCRect@@PBUtagRECT@@@Z 67daf300 f   atlsd:atltypes.obj
 0001:0002e360       ??0CRect@@QAE@XZ           67daf360 f   atlsd:atltypes.obj
 0001:0002e3a0       ??0CRect@@QAE@HHHH@Z       67daf3a0 f   atlsd:atltypes.obj
 0001:0002e3e0       ??0CRect@@QAE@ABUtagRECT@@@Z 67daf3e0 f   atlsd:atltypes.obj
 0001:0002e400       ??0CRect@@QAE@PBUtagRECT@@@Z 67daf400 f   atlsd:atltypes.obj
 0001:0002e420       ??0CRect@@QAE@UtagPOINT@@UtagSIZE@@@Z 67daf420 f   atlsd:atltypes.obj
 0001:0002e460       ??0CRect@@QAE@UtagPOINT@@0@Z 67daf460 f   atlsd:atltypes.obj
 0001:0002e4a0       ?Width@CRect@@QBEHXZ       67daf4a0 f   atlsd:atltypes.obj
 0001:0002e4c0       ?Height@CRect@@QBEHXZ      67daf4c0 f   atlsd:atltypes.obj
 0001:0002e4e0       ?Size@CRect@@QBE?AVCSize@@XZ 67daf4e0 f   atlsd:atltypes.obj
 0001:0002e520       ?TopLeft@CRect@@QAEAAVCPoint@@XZ 67daf520 f   atlsd:atltypes.obj
 0001:0002e530       ?BottomRight@CRect@@QAEAAVCPoint@@XZ 67daf530 f   atlsd:atltypes.obj
 0001:0002e550       ?TopLeft@CRect@@QBEABVCPoint@@XZ 67daf550 f   atlsd:atltypes.obj
 0001:0002e560       ?BottomRight@CRect@@QBEABVCPoint@@XZ 67daf560 f   atlsd:atltypes.obj
 0001:0002e580       ?CenterPoint@CRect@@QBE?AVCPoint@@XZ 67daf580 f   atlsd:atltypes.obj
 0001:0002e5c0       ?SwapLeftRight@CRect@@QAEXXZ 67daf5c0 f   atlsd:atltypes.obj
 0001:0002e5e0       ?SwapLeftRight@CRect@@SGXPAUtagRECT@@@Z 67daf5e0 f   atlsd:atltypes.obj
 0001:0002e610       ??BCRect@@QAEPAUtagRECT@@XZ 67daf610 f   atlsd:atltypes.obj
 0001:0002e620       ??BCRect@@QBEPBUtagRECT@@XZ 67daf620 f   atlsd:atltypes.obj
 0001:0002e630       ?IsRectEmpty@CRect@@QBEHXZ 67daf630 f   atlsd:atltypes.obj
 0001:0002e650       ?IsRectNull@CRect@@QBEHXZ  67daf650 f   atlsd:atltypes.obj
 0001:0002e6a0       ?PtInRect@CRect@@QBEHUtagPOINT@@@Z 67daf6a0 f   atlsd:atltypes.obj
 0001:0002e6d0       ?SetRect@CRect@@QAEXHHHH@Z 67daf6d0 f   atlsd:atltypes.obj
 0001:0002e700       ?SetRect@CRect@@QAEXUtagPOINT@@0@Z 67daf700 f   atlsd:atltypes.obj
 0001:0002e730       ?SetRectEmpty@CRect@@QAEXXZ 67daf730 f   atlsd:atltypes.obj
 0001:0002e750       ?CopyRect@CRect@@QAEXPBUtagRECT@@@Z 67daf750 f   atlsd:atltypes.obj
 0001:0002e770       ?EqualRect@CRect@@QBEHPBUtagRECT@@@Z 67daf770 f   atlsd:atltypes.obj
 0001:0002e790       ?InflateRect@CRect@@QAEXHH@Z 67daf790 f   atlsd:atltypes.obj
 0001:0002e7c0       ?InflateRect@CRect@@QAEXUtagSIZE@@@Z 67daf7c0 f   atlsd:atltypes.obj
 0001:0002e7f0       ?DeflateRect@CRect@@QAEXHH@Z 67daf7f0 f   atlsd:atltypes.obj
 0001:0002e820       ?DeflateRect@CRect@@QAEXUtagSIZE@@@Z 67daf820 f   atlsd:atltypes.obj
 0001:0002e850       ?OffsetRect@CRect@@QAEXHH@Z 67daf850 f   atlsd:atltypes.obj
 0001:0002e880       ?OffsetRect@CRect@@QAEXUtagPOINT@@@Z 67daf880 f   atlsd:atltypes.obj
 0001:0002e8b0       ?OffsetRect@CRect@@QAEXUtagSIZE@@@Z 67daf8b0 f   atlsd:atltypes.obj
 0001:0002e8e0       ?MoveToY@CRect@@QAEXH@Z    67daf8e0 f   atlsd:atltypes.obj
 0001:0002e910       ?MoveToX@CRect@@QAEXH@Z    67daf910 f   atlsd:atltypes.obj
 0001:0002e940       ?MoveToXY@CRect@@QAEXHH@Z  67daf940 f   atlsd:atltypes.obj
 0001:0002e970       ?MoveToXY@CRect@@QAEXUtagPOINT@@@Z 67daf970 f   atlsd:atltypes.obj
 0001:0002e9a0       ?IntersectRect@CRect@@QAEHPBUtagRECT@@0@Z 67daf9a0 f   atlsd:atltypes.obj
 0001:0002e9d0       ?UnionRect@CRect@@QAEHPBUtagRECT@@0@Z 67daf9d0 f   atlsd:atltypes.obj
 0001:0002ea00       ??4CRect@@QAEXABUtagRECT@@@Z 67dafa00 f   atlsd:atltypes.obj
 0001:0002ea20       ??8CRect@@QBEHABUtagRECT@@@Z 67dafa20 f   atlsd:atltypes.obj
 0001:0002ea40       ??9CRect@@QBEHABUtagRECT@@@Z 67dafa40 f   atlsd:atltypes.obj
 0001:0002ea70       ??YCRect@@QAEXUtagPOINT@@@Z 67dafa70 f   atlsd:atltypes.obj
 0001:0002eaa0       ??YCRect@@QAEXUtagSIZE@@@Z 67dafaa0 f   atlsd:atltypes.obj
 0001:0002ead0       ??YCRect@@QAEXPBUtagRECT@@@Z 67dafad0 f   atlsd:atltypes.obj
 0001:0002eaf0       ??ZCRect@@QAEXUtagPOINT@@@Z 67dafaf0 f   atlsd:atltypes.obj
 0001:0002eb20       ??ZCRect@@QAEXUtagSIZE@@@Z 67dafb20 f   atlsd:atltypes.obj
 0001:0002eb50       ??ZCRect@@QAEXPBUtagRECT@@@Z 67dafb50 f   atlsd:atltypes.obj
 0001:0002eb70       ??_4CRect@@QAEXABUtagRECT@@@Z 67dafb70 f   atlsd:atltypes.obj
 0001:0002eba0       ??_5CRect@@QAEXABUtagRECT@@@Z 67dafba0 f   atlsd:atltypes.obj
 0001:0002ebd0       ??HCRect@@QBE?AV0@UtagPOINT@@@Z 67dafbd0 f   atlsd:atltypes.obj
 0001:0002ec40       ??GCRect@@QBE?AV0@UtagPOINT@@@Z 67dafc40 f   atlsd:atltypes.obj
 0001:0002ecc0       ??HCRect@@QBE?AV0@UtagSIZE@@@Z 67dafcc0 f   atlsd:atltypes.obj
 0001:0002ed30       ??GCRect@@QBE?AV0@UtagSIZE@@@Z 67dafd30 f   atlsd:atltypes.obj
 0001:0002edb0       ??HCRect@@QBE?AV0@PBUtagRECT@@@Z 67dafdb0 f   atlsd:atltypes.obj
 0001:0002ee10       ??GCRect@@QBE?AV0@PBUtagRECT@@@Z 67dafe10 f   atlsd:atltypes.obj
 0001:0002ee70       ??ICRect@@QBE?AV0@ABUtagRECT@@@Z 67dafe70 f   atlsd:atltypes.obj
 0001:0002eed0       ??UCRect@@QBE?AV0@ABUtagRECT@@@Z 67dafed0 f   atlsd:atltypes.obj
 0001:0002ef30       ?SubtractRect@CRect@@QAEHPBUtagRECT@@0@Z 67daff30 f   atlsd:atltypes.obj
 0001:0002ef60       ?NormalizeRect@CRect@@QAEXXZ 67daff60 f   atlsd:atltypes.obj
 0001:0002efd0       ?InflateRect@CRect@@QAEXPBUtagRECT@@@Z 67daffd0 f   atlsd:atltypes.obj
 0001:0002f030       ?InflateRect@CRect@@QAEXHHHH@Z 67db0030 f   atlsd:atltypes.obj
 0001:0002f080       ?DeflateRect@CRect@@QAEXPBUtagRECT@@@Z 67db0080 f   atlsd:atltypes.obj
 0001:0002f0e0       ?DeflateRect@CRect@@QAEXHHHH@Z 67db00e0 f   atlsd:atltypes.obj
 0001:0002f130       ?MulDiv@CRect@@QBE?AV1@HH@Z 67db0130 f   atlsd:atltypes.obj
 0001:0002f1b0       ??0CAtlAllocator@@QAE@XZ   67db01b0 f i atlsd:Externs.obj
 0001:0002f200       ??0CTraceSnapshot@@QAE@XZ  67db0200 f i atlsd:Externs.obj
 0001:0002f230       ??0?$CSimpleArray@UCModuleInfo@CTraceSnapshot@@V?$CSimpleArrayEqualHelper@UCModuleInfo@CTraceSnapshot@@@ATL@@@ATL@@QAE@XZ 67db0230 f i atlsd:Externs.obj
 0001:0002f260       ??0?$CSimpleArray@KV?$CSimpleArrayEqualHelper@K@ATL@@@ATL@@QAE@XZ 67db0260 f i atlsd:Externs.obj
 0001:0002f380       ??0CAtlException@ATL@@QAE@J@Z 67db0380 f i atlsd:Externs.obj
 0001:0002f3a0       ?AtlCrtErrorCheck@ATL@@YAHH@Z 67db03a0 f i atlsd:Externs.obj
 0001:0002f460       ?AtlThrowImpl@ATL@@YGXJ@Z  67db0460 f i atlsd:Externs.obj
 0001:0002f4f0       ??RCTraceFileAndLineInfo@ATL@@QBAXKIPBDZZ 67db04f0 f i atlsd:Externs.obj
 0001:0002f540       ?_AtlRaiseException@ATL@@YAXKK@Z 67db0540 f i atlsd:Externs.obj
 0001:0002f560       ??0CTrace@ATL@@AAE@P6AHHPBDH00ZZ@Z 67db0560 f i atlsd:Externs.obj
 0001:0002f5a0       ??1CAtlAllocator@@QAE@XZ   67db05a0 f i atlsd:Externs.obj
 0001:0002f5c0       ??1CTraceSnapshot@@QAE@XZ  67db05c0 f i atlsd:Externs.obj
 0001:0002f5e0       ??1?$CSimpleArray@UCModuleInfo@CTraceSnapshot@@V?$CSimpleArrayEqualHelper@UCModuleInfo@CTraceSnapshot@@@ATL@@@ATL@@QAE@XZ 67db05e0 f i atlsd:Externs.obj
 0001:0002f600       ??1?$CSimpleArray@KV?$CSimpleArrayEqualHelper@K@ATL@@@ATL@@QAE@XZ 67db0600 f i atlsd:Externs.obj
 0001:0002f620       ?RemoveAll@?$CSimpleArray@UCModuleInfo@CTraceSnapshot@@V?$CSimpleArrayEqualHelper@UCModuleInfo@CTraceSnapshot@@@ATL@@@ATL@@QAEXXZ 67db0620 f i atlsd:Externs.obj
 0001:0002f690       ?RemoveAll@?$CSimpleArray@KV?$CSimpleArrayEqualHelper@K@ATL@@@ATL@@QAEXXZ 67db0690 f i atlsd:Externs.obj
 0001:0002f700       ??1CTrace@ATL@@AAE@XZ      67db0700 f i atlsd:Externs.obj
 0001:0002f720       ??0CTraceCategory@ATL@@QAE@PBDI@Z 67db0720 f i atlsd:atltrace.obj
 0001:0002f770       ?ChangeCategory@CTrace@ATL@@QAE_NKIW4ATLTRACESTATUS@2@@Z 67db0770 f i atlsd:atltrace.obj
 0001:0002f7a0       ?RegisterCategory@CTrace@ATL@@QAEKPBD@Z 67db07a0 f i atlsd:atltrace.obj
 0001:0002f7c0       ?NotifyTool@ATL@@YGXXZ     67db07c0 f   atlsd:AtlDebugAPI.obj
 0001:0002f800       _AtlTraceRegister@8        67db0800 f   atlsd:AtlDebugAPI.obj
 0001:0002f880       _AtlTraceUnregister@4      67db0880 f   atlsd:AtlDebugAPI.obj
 0001:0002f8b0       _AtlTraceRegisterCategoryA@8 67db08b0 f   atlsd:AtlDebugAPI.obj
 0001:0002f920       _AtlTraceRegisterCategoryU@8 67db0920 f   atlsd:AtlDebugAPI.obj
 0001:0002f970       _AtlTraceModifyProcess@20  67db0970 f   atlsd:AtlDebugAPI.obj
 0001:0002fa10       ?GetProcess@CAtlAllocator@@QBEPAVCAtlTraceProcess@@XZ 67db0a10 f i atlsd:AtlDebugAPI.obj
 0001:0002fa30       _AtlTraceModifyModule@16   67db0a30 f   atlsd:AtlDebugAPI.obj
 0001:0002fb20       _AtlTraceModifyCategory@16 67db0b20 f   atlsd:AtlDebugAPI.obj
 0001:0002fbd0       _AtlTraceGetProcess@20     67db0bd0 f   atlsd:AtlDebugAPI.obj
 0001:0002fcb0       _AtlTraceGetModule@16      67db0cb0 f   atlsd:AtlDebugAPI.obj
 0001:0002fdc0       _AtlTraceGetCategory@16    67db0dc0 f   atlsd:AtlDebugAPI.obj
 0001:0002fea0       _AtlTraceGetUpdateEventNameA@4 67db0ea0 f   atlsd:AtlDebugAPI.obj
 0001:0002fed0       _AtlTraceGetUpdateEventNameA_s@8 67db0ed0 f   atlsd:AtlDebugAPI.obj
 0001:0002ff00       _AtlTraceGetUpdateEventNameU@4 67db0f00 f   atlsd:AtlDebugAPI.obj
 0001:0002ff70       _AtlTraceGetUpdateEventNameU_s@8 67db0f70 f   atlsd:AtlDebugAPI.obj
 0001:0002ffe0       _AtlTraceVA                67db0fe0 f   atlsd:AtlDebugAPI.obj
 0001:00030300       ?Name@CAtlTraceCategory@@QBEPB_WXZ 67db1300 f i atlsd:AtlDebugAPI.obj
 0001:00030320       _AtlTraceVU                67db1320 f   atlsd:AtlDebugAPI.obj
 0001:00030670       _AtlTraceOpenProcess@4     67db1670 f   atlsd:AtlDebugAPI.obj
 0001:00030770       ??_GCAtlAllocator@@QAEPAXI@Z 67db1770 f i atlsd:AtlDebugAPI.obj
 0001:000307a0       _AtlTraceCloseProcess@4    67db17a0 f   atlsd:AtlDebugAPI.obj
 0001:00030840       _AtlTraceSnapshotProcess@4 67db1840 f   atlsd:AtlDebugAPI.obj
 0001:000308b0       _AtlTraceGetProcessInfo@8  67db18b0 f   atlsd:AtlDebugAPI.obj
 0001:00030a50       ?Path@CAtlTraceModuleInfo@@QBEPB_WXZ 67db1a50 f i atlsd:AtlDebugAPI.obj
 0001:00030a70       ?Name@CAtlTraceModuleInfo@@QBEPB_WXZ 67db1a70 f i atlsd:AtlDebugAPI.obj
 0001:00030a90       ?Id@CAtlTraceProcess@@QBEKXZ 67db1a90 f i atlsd:AtlDebugAPI.obj
 0001:00030ab0       _AtlTraceGetModuleInfo@12  67db1ab0 f   atlsd:AtlDebugAPI.obj
 0001:00030c50       _AtlTraceGetCategoryInfo@16 67db1c50 f   atlsd:AtlDebugAPI.obj
 0001:00030fe0       ?CrtDbgReport@CAtlTraceModule@@QBEP6AHHPBDH00ZZXZ 67db1fe0 f i atlsd:AtlDebugAPI.obj
 0001:00031000       ?_IsTracingEnabled@ATL@@YA_NKKI@Z 67db2000 f   atlsd:AtlDebugAPI.obj
 0001:00031040       ?GetSize@?$CSimpleArray@UCModuleInfo@CTraceSnapshot@@V?$CSimpleArrayEqualHelper@UCModuleInfo@CTraceSnapshot@@@ATL@@@ATL@@QBEHXZ 67db2040 f i atlsd:AtlDebugAPI.obj
 0001:00031060       ??A?$CSimpleArray@UCModuleInfo@CTraceSnapshot@@V?$CSimpleArrayEqualHelper@UCModuleInfo@CTraceSnapshot@@@ATL@@@ATL@@QAEAAUCModuleInfo@CTraceSnapshot@@H@Z 67db2060 f i atlsd:AtlDebugAPI.obj
 0001:000310d0       ?strcpy_s@Checked@ATL@@YAXPADIPBD@Z 67db20d0 f i atlsd:AtlDebugAPI.obj
 0001:00031100       ?wcscpy_s@Checked@ATL@@YAXPA_WIPB_W@Z 67db2100 f i atlsd:AtlDebugAPI.obj
 0001:00031130       ??0?$CA2WEX@$0IA@@ATL@@QAE@PBD@Z 67db2130 f i atlsd:AtlDebugAPI.obj
 0001:00031160       ?_AtlGetConversionACP@ATL@@YGIXZ 67db2160 f i atlsd:AtlDebugAPI.obj
 0001:00031170       ??1?$CA2WEX@$0IA@@ATL@@QAE@XZ 67db2170 f i atlsd:AtlDebugAPI.obj
 0001:000311a0       ??B?$CA2WEX@$0IA@@ATL@@QBEPA_WXZ 67db21a0 f i atlsd:AtlDebugAPI.obj
 0001:000311c0       ?Init@?$CA2WEX@$0IA@@ATL@@AAEXPBDI@Z 67db21c0 f i atlsd:AtlDebugAPI.obj
 0001:000312c0       ?AtlThrowLastWin32@ATL@@YGXXZ 67db22c0 f i atlsd:AtlDebugAPI.obj
 0001:000312f0       _HRESULT_FROM_WIN32        67db22f0 f i atlsd:AtlDebugAPI.obj
 0001:00031330       ??$AtlConvFreeMemory@_W@ATL@@YAXPA_W0H@Z 67db2330 f i atlsd:AtlDebugAPI.obj
 0001:00031370       ??$AtlConvAllocMemory@_W@ATL@@YAXPAPA_WHPA_WH@Z 67db2370 f i atlsd:AtlDebugAPI.obj
 0001:00031500       ?Init@CAtlAllocator@@QAE_NPBDK@Z 67db2500 f   atlsd:Allocate.obj
 0001:00031830       ?IncRef@CAtlTraceProcess@@QAEIXZ 67db2830 f i atlsd:Allocate.obj
 0001:00031860       ?Base@CAtlTraceProcess@@QBEPAXXZ 67db2860 f i atlsd:Allocate.obj
 0001:00031880       ?Open@CAtlAllocator@@QAE_NPBD@Z 67db2880 f   atlsd:Allocate.obj
 0001:000319c0       ?Close@CAtlAllocator@@QAEX_N@Z 67db29c0 f   atlsd:Allocate.obj
 0001:00031a30       ?DecRef@CAtlTraceProcess@@QAEIXZ 67db2a30 f i atlsd:Allocate.obj
 0001:00031a60       ?GetModule@CAtlAllocator@@QBEPAVCAtlTraceModule@@H@Z 67db2a60 f   atlsd:Allocate.obj
 0001:00031af0       ?ModuleCount@CAtlTraceProcess@@QBEHXZ 67db2af0 f i atlsd:Allocate.obj
 0001:00031b10       ?GetCategory@CAtlAllocator@@QBEPAVCAtlTraceCategory@@H@Z 67db2b10 f   atlsd:Allocate.obj
 0001:00031bc0       ?MaxSize@CAtlTraceProcess@@QBEKXZ 67db2bc0 f i atlsd:Allocate.obj
 0001:00031be0       ?CategoryCount@CAtlTraceProcess@@QBEHXZ 67db2be0 f i atlsd:Allocate.obj
 0001:00031c00       ?GetCategoryCount@CAtlAllocator@@QBEHH@Z 67db2c00 f   atlsd:Allocate.obj
 0001:00031c80       ?GetCategoryCount@CAtlAllocator@@QBEHABVCAtlTraceModule@@@Z 67db2c80 f   atlsd:Allocate.obj
 0001:00031cf0       ?GetModuleCount@CAtlAllocator@@QBEHXZ 67db2cf0 f   atlsd:Allocate.obj
 0001:00031d50       ?FindModule@CAtlAllocator@@QBE_NPB_WPAI@Z 67db2d50 f   atlsd:Allocate.obj
 0001:00031dd0       ?AddModule@CAtlAllocator@@QAEHPAUHINSTANCE__@@@Z 67db2dd0 f   atlsd:Allocate.obj
 0001:00031fa0       ?TryAllocate@CAtlTraceSettings@@QAE_NXZ 67db2fa0 f i atlsd:Allocate.obj
 0001:00031fe0       ?MarkValid@CAtlTraceSettings@@QAEXJ@Z 67db2fe0 f i atlsd:Allocate.obj
 0001:00032020       ?IncModuleCount@CAtlTraceProcess@@QAEXI@Z 67db3020 f i atlsd:Allocate.obj
 0001:00032050       ?AddCategory@CAtlAllocator@@QAEHHPB_W@Z 67db3050 f   atlsd:Allocate.obj
 0001:00032280       ?TryAddRef@CAtlTraceSettings@@QAE_NXZ 67db3280 f i atlsd:Allocate.obj
 0001:000322c0       ?Release@CAtlTraceSettings@@QAEXXZ 67db32c0 f i atlsd:Allocate.obj
 0001:000322f0       ?IncCategoryCount@CAtlTraceProcess@@QAEXI@Z 67db32f0 f i atlsd:Allocate.obj
 0001:00032320       ?RemoveModule@CAtlAllocator@@QAE_NH@Z 67db3320 f   atlsd:Allocate.obj
 0001:000323d0       ?CleanUp@CAtlAllocator@@QAEXXZ 67db33d0 f   atlsd:Allocate.obj
 0001:000323f0       ?TakeSnapshot@CAtlAllocator@@QAEXXZ 67db33f0 f   atlsd:Allocate.obj
 0001:000325e0       ?ReleaseSnapshot@CAtlAllocator@@QAEXXZ 67db35e0 f   atlsd:Allocate.obj
 0001:000326c0       ?Add@?$CSimpleArray@UCModuleInfo@CTraceSnapshot@@V?$CSimpleArrayEqualHelper@UCModuleInfo@CTraceSnapshot@@@ATL@@@ATL@@QAEHABUCModuleInfo@CTraceSnapshot@@@Z 67db36c0 f i atlsd:Allocate.obj
 0001:000327f0       ?GetSize@?$CSimpleArray@KV?$CSimpleArrayEqualHelper@K@ATL@@@ATL@@QBEHXZ 67db37f0 f i atlsd:Allocate.obj
 0001:00032810       ?Add@?$CSimpleArray@KV?$CSimpleArrayEqualHelper@K@ATL@@@ATL@@QAEHABK@Z 67db3810 f i atlsd:Allocate.obj
 0001:00032940       ?RemoveAt@?$CSimpleArray@KV?$CSimpleArrayEqualHelper@K@ATL@@@ATL@@QAEHH@Z 67db3940 f i atlsd:Allocate.obj
 0001:00032a00       ??A?$CSimpleArray@KV?$CSimpleArrayEqualHelper@K@ATL@@@ATL@@QAEAAKH@Z 67db3a00 f i atlsd:Allocate.obj
 0001:00032a70       ?InternalSetAtIndex@?$CSimpleArray@UCModuleInfo@CTraceSnapshot@@V?$CSimpleArrayEqualHelper@UCModuleInfo@CTraceSnapshot@@@ATL@@@ATL@@QAEXHABUCModuleInfo@CTraceSnapshot@@@Z 67db3a70 f i atlsd:Allocate.obj
 0001:00032ac0       ?InternalSetAtIndex@?$CSimpleArray@KV?$CSimpleArrayEqualHelper@K@ATL@@@ATL@@QAEXHABK@Z 67db3ac0 f i atlsd:Allocate.obj
 0001:00032b10       ??0Wrapper@?$CSimpleArray@UCModuleInfo@CTraceSnapshot@@V?$CSimpleArrayEqualHelper@UCModuleInfo@CTraceSnapshot@@@ATL@@@ATL@@QAE@ABUCModuleInfo@CTraceSnapshot@@@Z 67db3b10 f i atlsd:Allocate.obj
 0001:00032b40       ??0Wrapper@?$CSimpleArray@KV?$CSimpleArrayEqualHelper@K@ATL@@@ATL@@QAE@ABK@Z 67db3b40 f i atlsd:Allocate.obj
 0001:00032b60       ??$?2UCModuleInfo@CTraceSnapshot@@@Wrapper@?$CSimpleArray@UCModuleInfo@CTraceSnapshot@@V?$CSimpleArrayEqualHelper@UCModuleInfo@CTraceSnapshot@@@ATL@@@ATL@@SAPAXIPAUCModuleInfo@CTraceSnapshot@@@Z 67db3b60 f i atlsd:Allocate.obj
 0001:00032b70       ??$?2K@Wrapper@?$CSimpleArray@KV?$CSimpleArrayEqualHelper@K@ATL@@@ATL@@SAPAXIPAK@Z 67db3b70 f i atlsd:Allocate.obj
 0001:00032b80       ?memmove_s@Checked@ATL@@YAXPAXIPBXI@Z 67db3b80 f i atlsd:Allocate.obj
 0001:00032bb0       ??2@YAPAXIPAX@Z            67db3bb0 f i atlsd:Allocate.obj
 0001:00032bc0       ??0CAtlTraceModuleInfo@@QAE@XZ 67db3bc0 f   atlsd:AtlTraceModuleManager.obj
 0001:00032c10       ?Reset@CAtlTraceModuleInfo@@QAEXPAUHINSTANCE__@@@Z 67db3c10 f   atlsd:AtlTraceModuleManager.obj
 0001:00032d50       ??0CAtlTraceCategory@@QAE@XZ 67db3d50 f   atlsd:AtlTraceModuleManager.obj
 0001:00032d90       ??0CAtlTraceSettings@@QAE@XZ 67db3d90 f i atlsd:AtlTraceModuleManager.obj
 0001:00032dd0       ?Reset@CAtlTraceCategory@@QAEXPB_WJ@Z 67db3dd0 f   atlsd:AtlTraceModuleManager.obj
 0001:00032e20       ??0CAtlTraceModule@@QAE@XZ 67db3e20 f   atlsd:AtlTraceModuleManager.obj
 0001:00032e60       ?CrtDbgReport@CAtlTraceModule@@QAEXP6AHHPBDH00ZZ@Z 67db3e60 f   atlsd:AtlTraceModuleManager.obj
 0001:00032ea0       ??0CAtlTraceProcess@@QAE@K@Z 67db3ea0 f   atlsd:AtlTraceModuleManager.obj
 0001:00032f70       ?GetNextCookie@CAtlTraceProcess@@QAEJXZ 67db3f70 f   atlsd:AtlTraceModuleManager.obj
 0001:00032f8c       _SysFreeString@4           67db3f8c f   oleaut32:OLEAUT32.dll
 0001:00032f92       ??2@YAPAXI@Z               67db3f92 f   mfc100d:mfc100d.dll
 0001:00032f98       __snprintf_s               67db3f98 f   msvcrtd:MSVCR100D.dll
 0001:00032f9e       __errno                    67db3f9e f   msvcrtd:MSVCR100D.dll
 0001:00032fa4       __CxxThrowException@8      67db3fa4 f   msvcrtd:MSVCR100D.dll
 0001:00032faa       __CrtDbgReportW            67db3faa f   msvcrtd:MSVCR100D.dll
 0001:00032fb0       __CrtDbgReport             67db3fb0 f   msvcrtd:MSVCR100D.dll
 0001:00032fb6       _free                      67db3fb6 f   msvcrtd:MSVCR100D.dll
 0001:00032fbc       _strcpy                    67db3fbc f   msvcrtd:MSVCR100D.dll
 0001:00032fc2       _wcscpy                    67db3fc2 f   msvcrtd:MSVCR100D.dll
 0001:00032fc8       __vsnprintf_s              67db3fc8 f   msvcrtd:MSVCR100D.dll
 0001:00032fce       __vsnwprintf_s             67db3fce f   msvcrtd:MSVCR100D.dll
 0001:00032fd4       __snwprintf_s              67db3fd4 f   msvcrtd:MSVCR100D.dll
 0001:00032fda       _wcsncpy_s                 67db3fda f   msvcrtd:MSVCR100D.dll
 0001:00032fe0       _strcpy_s                  67db3fe0 f   msvcrtd:MSVCR100D.dll
 0001:00032fe6       _calloc                    67db3fe6 f   msvcrtd:MSVCR100D.dll
 0001:00032fec       __recalloc                 67db3fec f   msvcrtd:MSVCR100D.dll
 0001:00032ff2       _memcmp                    67db3ff2 f   msvcrtd:MSVCR100D.dll
 0001:00032ff8       __wcsicmp                  67db3ff8 f   msvcrtd:MSVCR100D.dll
 0001:00032ffe       _memmove_s                 67db3ffe f   msvcrtd:MSVCR100D.dll
 0001:00033004       _wcslen                    67db4004 f   msvcrtd:MSVCR100D.dll
 0001:0003300a       _MulDiv@12                 67db400a f   kernel32:KERNEL32.dll
 0001:00033010       _CloseHandle@4             67db4010 f   kernel32:KERNEL32.dll
 0001:00033016       _SetEvent@4                67db4016 f   kernel32:KERNEL32.dll
 0001:0003301c       _OpenEventA@12             67db401c f   kernel32:KERNEL32.dll
 0001:00033022       _OutputDebugStringA@4      67db4022 f   kernel32:KERNEL32.dll
 0001:00033028       _OutputDebugStringW@4      67db4028 f   kernel32:KERNEL32.dll
 0001:0003302e       _GetLastError@0            67db402e f   kernel32:KERNEL32.dll
 0001:00033034       _VirtualAlloc@16           67db4034 f   kernel32:KERNEL32.dll
 0001:0003303a       _UnmapViewOfFile@4         67db403a f   kernel32:KERNEL32.dll
 0001:00033040       _GetSystemInfo@4           67db4040 f   kernel32:KERNEL32.dll
 0001:00033046       _MapViewOfFile@20          67db4046 f   kernel32:KERNEL32.dll
 0001:0003304c       _CreateFileMappingA@24     67db404c f   kernel32:KERNEL32.dll
 0001:00033052       _GetCurrentThread@0        67db4052 f   kernel32:KERNEL32.dll
 0001:00033058       _OpenFileMappingA@12       67db4058 f   kernel32:KERNEL32.dll
 0001:0003305e       _InterlockedIncrement@4    67db405e f   kernel32:KERNEL32.dll
 0001:00033064       _InterlockedDecrement@4    67db4064 f   kernel32:KERNEL32.dll
 0001:0003306a       _CopyRect@8                67db406a f   user32:USER32.dll
 0001:00033070       _IsRectEmpty@4             67db4070 f   user32:USER32.dll
 0001:00033076       _PtInRect@12               67db4076 f   user32:USER32.dll
 0001:0003307c       _SetRect@20                67db407c f   user32:USER32.dll
 0001:00033082       _SetRectEmpty@4            67db4082 f   user32:USER32.dll
 0001:00033088       _EqualRect@8               67db4088 f   user32:USER32.dll
 0001:0003308e       _InflateRect@12            67db408e f   user32:USER32.dll
 0001:00033094       _OffsetRect@12             67db4094 f   user32:USER32.dll
 0001:0003309a       _IntersectRect@12          67db409a f   user32:USER32.dll
 0001:000330a0       _UnionRect@12              67db40a0 f   user32:USER32.dll
 0001:000330a6       _SubtractRect@12           67db40a6 f   user32:USER32.dll
 0001:000330ac       _SetThreadToken@8          67db40ac f   advapi32:ADVAPI32.dll
 0001:000330b2       _RevertToSelf@0            67db40b2 f   advapi32:ADVAPI32.dll
 0001:000330b8       _OpenThreadToken@16        67db40b8 f   advapi32:ADVAPI32.dll
 0002:00000000       __imp__SetThreadToken@8    67db8000     advapi32:ADVAPI32.dll
 0002:00000004       __imp__RevertToSelf@0      67db8004     advapi32:ADVAPI32.dll
 0002:00000008       __imp__OpenThreadToken@16  67db8008     advapi32:ADVAPI32.dll
 0002:0000000c       \177ADVAPI32_NULL_THUNK_DATA 67db800c     advapi32:ADVAPI32.dll
 0002:00000010       __imp__GetSaveFileNameA@4  67db8010     comdlg32:COMDLG32.dll
 0002:00000014       \177COMDLG32_NULL_THUNK_DATA 67db8014     comdlg32:COMDLG32.dll
 0002:00000018       __imp__CorCabSetPrm@12     67db8018     Corapi:CORAPI.dll
 0002:0000001c       __imp__CorAcqGetCap@12     67db801c     Corapi:CORAPI.dll
 0002:00000020       \177CORAPI_NULL_THUNK_DATA 67db8020     Corapi:CORAPI.dll
 0002:00000024       __imp__TerminateProcess@8  67db8024     kernel32:KERNEL32.dll
 0002:00000028       __imp__InterlockedIncrement@4 67db8028     kernel32:KERNEL32.dll
 0002:0000002c       __imp__OpenFileMappingA@12 67db802c     kernel32:KERNEL32.dll
 0002:00000030       __imp__GetCurrentThread@0  67db8030     kernel32:KERNEL32.dll
 0002:00000034       __imp__CreateFileMappingA@24 67db8034     kernel32:KERNEL32.dll
 0002:00000038       __imp__MapViewOfFile@20    67db8038     kernel32:KERNEL32.dll
 0002:0000003c       __imp__GetSystemInfo@4     67db803c     kernel32:KERNEL32.dll
 0002:00000040       __imp__UnmapViewOfFile@4   67db8040     kernel32:KERNEL32.dll
 0002:00000044       __imp__VirtualAlloc@16     67db8044     kernel32:KERNEL32.dll
 0002:00000048       __imp__GetLastError@0      67db8048     kernel32:KERNEL32.dll
 0002:0000004c       __imp__OutputDebugStringW@4 67db804c     kernel32:KERNEL32.dll
 0002:00000050       __imp__OutputDebugStringA@4 67db8050     kernel32:KERNEL32.dll
 0002:00000054       __imp__OpenEventA@12       67db8054     kernel32:KERNEL32.dll
 0002:00000058       __imp__SetEvent@4          67db8058     kernel32:KERNEL32.dll
 0002:0000005c       __imp__CloseHandle@4       67db805c     kernel32:KERNEL32.dll
 0002:00000060       __imp__MulDiv@12           67db8060     kernel32:KERNEL32.dll
 0002:00000064       __imp__FreeLibrary@4       67db8064     kernel32:KERNEL32.dll
 0002:00000068       __imp__GetModuleHandleW@4  67db8068     kernel32:KERNEL32.dll
 0002:0000006c       __imp__VirtualQuery@12     67db806c     kernel32:KERNEL32.dll
 0002:00000070       __imp__GetModuleFileNameW@12 67db8070     kernel32:KERNEL32.dll
 0002:00000074       __imp__GetProcessHeap@0    67db8074     kernel32:KERNEL32.dll
 0002:00000078       __imp__HeapAlloc@12        67db8078     kernel32:KERNEL32.dll
 0002:0000007c       __imp__HeapFree@12         67db807c     kernel32:KERNEL32.dll
 0002:00000080       __imp__GetSystemTimeAsFileTime@4 67db8080     kernel32:KERNEL32.dll
 0002:00000084       __imp__GetCurrentProcessId@0 67db8084     kernel32:KERNEL32.dll
 0002:00000088       __imp__GetCurrentThreadId@0 67db8088     kernel32:KERNEL32.dll
 0002:0000008c       __imp__QueryPerformanceCounter@4 67db808c     kernel32:KERNEL32.dll
 0002:00000090       __imp__IsProcessorFeaturePresent@4 67db8090     kernel32:KERNEL32.dll
 0002:00000094       __imp__SetUnhandledExceptionFilter@4 67db8094     kernel32:KERNEL32.dll
 0002:00000098       __imp__UnhandledExceptionFilter@4 67db8098     kernel32:KERNEL32.dll
 0002:0000009c       __imp__GetTickCount@0      67db809c     kernel32:KERNEL32.dll
 0002:000000a0       __imp__GetPrivateProfileStringA@24 67db80a0     kernel32:KERNEL32.dll
 0002:000000a4       __imp__IsBadReadPtr@8      67db80a4     kernel32:KERNEL32.dll
 0002:000000a8       __imp__GetCurrentDirectoryA@8 67db80a8     kernel32:KERNEL32.dll
 0002:000000ac       __imp__GetEnvironmentVariableA@12 67db80ac     kernel32:KERNEL32.dll
 0002:000000b0       __imp__OpenFile@12         67db80b0     kernel32:KERNEL32.dll
 0002:000000b4       __imp__WaitForSingleObject@8 67db80b4     kernel32:KERNEL32.dll
 0002:000000b8       __imp__CreateProcessA@40   67db80b8     kernel32:KERNEL32.dll
 0002:000000bc       __imp__GetStartupInfoA@4   67db80bc     kernel32:KERNEL32.dll
 0002:000000c0       __imp__Sleep@4             67db80c0     kernel32:KERNEL32.dll
 0002:000000c4       __imp__EncodePointer@4     67db80c4     kernel32:KERNEL32.dll
 0002:000000c8       __imp__DecodePointer@4     67db80c8     kernel32:KERNEL32.dll
 0002:000000cc       __imp__InterlockedExchange@8 67db80cc     kernel32:KERNEL32.dll
 0002:000000d0       __imp__InterlockedCompareExchange@12 67db80d0     kernel32:KERNEL32.dll
 0002:000000d4       __imp__WideCharToMultiByte@32 67db80d4     kernel32:KERNEL32.dll
 0002:000000d8       __imp__IsDebuggerPresent@0 67db80d8     kernel32:KERNEL32.dll
 0002:000000dc       __imp__MultiByteToWideChar@24 67db80dc     kernel32:KERNEL32.dll
 0002:000000e0       __imp__RaiseException@16   67db80e0     kernel32:KERNEL32.dll
 0002:000000e4       __imp__lstrlenA@4          67db80e4     kernel32:KERNEL32.dll
 0002:000000e8       __imp__GetProcAddress@8    67db80e8     kernel32:KERNEL32.dll
 0002:000000ec       __imp__LoadLibraryW@4      67db80ec     kernel32:KERNEL32.dll
 0002:000000f0       __imp__InterlockedDecrement@4 67db80f0     kernel32:KERNEL32.dll
 0002:000000f4       __imp__GetCurrentProcess@0 67db80f4     kernel32:KERNEL32.dll
 0002:000000f8       \177KERNEL32_NULL_THUNK_DATA 67db80f8     kernel32:KERNEL32.dll
 0002:000000fc       __imp___wsplitpath_s       67db80fc     msvcrtd:MSVCR100D.dll
 0002:00000100       __imp__wcscpy_s            67db8100     msvcrtd:MSVCR100D.dll
 0002:00000104       __imp___wmakepath_s        67db8104     msvcrtd:MSVCR100D.dll
 0002:00000108       __imp____clean_type_info_names_internal 67db8108     msvcrtd:MSVCR100D.dll
 0002:0000010c       __imp___crt_debugger_hook  67db810c     msvcrtd:MSVCR100D.dll
 0002:00000110       __imp___except_handler4_common 67db8110     msvcrtd:MSVCR100D.dll
 0002:00000114       __imp_?_type_info_dtor_internal_method@type_info@@QAEXXZ 67db8114     msvcrtd:MSVCR100D.dll
 0002:00000118       __imp____CppXcptFilter     67db8118     msvcrtd:MSVCR100D.dll
 0002:0000011c       __imp___amsg_exit          67db811c     msvcrtd:MSVCR100D.dll
 0002:00000120       __imp___initterm_e         67db8120     msvcrtd:MSVCR100D.dll
 0002:00000124       __imp___initterm           67db8124     msvcrtd:MSVCR100D.dll
 0002:00000128       __imp___CrtSetCheckCount   67db8128     msvcrtd:MSVCR100D.dll
 0002:0000012c       __imp___encoded_null       67db812c     msvcrtd:MSVCR100D.dll
 0002:00000130       __imp___free_dbg           67db8130     msvcrtd:MSVCR100D.dll
 0002:00000134       __imp___snprintf_s         67db8134     msvcrtd:MSVCR100D.dll
 0002:00000138       __imp___errno              67db8138     msvcrtd:MSVCR100D.dll
 0002:0000013c       __imp___CxxThrowException@8 67db813c     msvcrtd:MSVCR100D.dll
 0002:00000140       __imp___CrtDbgReportW      67db8140     msvcrtd:MSVCR100D.dll
 0002:00000144       __imp___CrtDbgReport       67db8144     msvcrtd:MSVCR100D.dll
 0002:00000148       __imp__free                67db8148     msvcrtd:MSVCR100D.dll
 0002:0000014c       __imp__strcpy              67db814c     msvcrtd:MSVCR100D.dll
 0002:00000150       __imp__wcscpy              67db8150     msvcrtd:MSVCR100D.dll
 0002:00000154       __imp___vsnprintf_s        67db8154     msvcrtd:MSVCR100D.dll
 0002:00000158       __imp___vsnwprintf_s       67db8158     msvcrtd:MSVCR100D.dll
 0002:0000015c       __imp___snwprintf_s        67db815c     msvcrtd:MSVCR100D.dll
 0002:00000160       __imp__wcsncpy_s           67db8160     msvcrtd:MSVCR100D.dll
 0002:00000164       __imp__strcpy_s            67db8164     msvcrtd:MSVCR100D.dll
 0002:00000168       __imp__calloc              67db8168     msvcrtd:MSVCR100D.dll
 0002:0000016c       __imp___recalloc           67db816c     msvcrtd:MSVCR100D.dll
 0002:00000170       __imp__memcmp              67db8170     msvcrtd:MSVCR100D.dll
 0002:00000174       __imp___wcsicmp            67db8174     msvcrtd:MSVCR100D.dll
 0002:00000178       __imp__memmove_s           67db8178     msvcrtd:MSVCR100D.dll
 0002:0000017c       __imp__wcslen              67db817c     msvcrtd:MSVCR100D.dll
 0002:00000180       __imp___malloc_dbg         67db8180     msvcrtd:MSVCR100D.dll
 0002:00000184       __imp___onexit             67db8184     msvcrtd:MSVCR100D.dll
 0002:00000188       __imp___lock               67db8188     msvcrtd:MSVCR100D.dll
 0002:0000018c       __imp____dllonexit         67db818c     msvcrtd:MSVCR100D.dll
 0002:00000190       __imp___unlock             67db8190     msvcrtd:MSVCR100D.dll
 0002:00000194       __imp_?terminate@@YAXXZ    67db8194     msvcrtd:MSVCR100D.dll
 0002:00000198       __imp___CRT_RTC_INITW      67db8198     msvcrtd:MSVCR100D.dll
 0002:0000019c       __imp__floor               67db819c     msvcrtd:MSVCR100D.dll
 0002:000001a0       __imp__strcmp              67db81a0     msvcrtd:MSVCR100D.dll
 0002:000001a4       __imp___stricmp            67db81a4     msvcrtd:MSVCR100D.dll
 0002:000001a8       __imp__strlen              67db81a8     msvcrtd:MSVCR100D.dll
 0002:000001ac       __imp___vsnprintf          67db81ac     msvcrtd:MSVCR100D.dll
 0002:000001b0       __imp__strrchr             67db81b0     msvcrtd:MSVCR100D.dll
 0002:000001b4       __imp__memset              67db81b4     msvcrtd:MSVCR100D.dll
 0002:000001b8       __imp___splitpath_s        67db81b8     msvcrtd:MSVCR100D.dll
 0002:000001bc       __imp____CxxFrameHandler3  67db81bc     msvcrtd:MSVCR100D.dll
 0002:000001c0       __imp__strstr              67db81c0     msvcrtd:MSVCR100D.dll
 0002:000001c4       \177MSVCR100D_NULL_THUNK_DATA 67db81c4     msvcrtd:MSVCR100D.dll
 0002:000001c8       __imp__SysFreeString@4     67db81c8     oleaut32:OLEAUT32.dll
 0002:000001cc       \177OLEAUT32_NULL_THUNK_DATA 67db81cc     oleaut32:OLEAUT32.dll
 0002:000001d0       __imp_?GetNumFramesAverage@SapFlatField@@QBEHXZ 67db81d0     SapClassBasic:SapClassBasic80.dll
 0002:000001d4       __imp_?GetNumLinesAverage@SapFlatField@@QBEHXZ 67db81d4     SapClassBasic:SapClassBasic80.dll
 0002:000001d8       __imp_?GetVideoType@SapFlatField@@QBE?AW4VideoType@SapAcquisition@@XZ 67db81d8     SapClassBasic:SapClassBasic80.dll
 0002:000001dc       __imp_?GetCorrectionType@SapFlatField@@QBE?AW4CorrectionType@1@XZ 67db81dc     SapClassBasic:SapClassBasic80.dll
 0002:000001e0       __imp_?GetOffsetMinMax@SapFlatField@@QAEXPAH0@Z 67db81e0     SapClassBasic:SapClassBasic80.dll
 0002:000001e4       __imp_?Load@SapBuffer@@UAEHPBD0HH@Z 67db81e4     SapClassBasic:SapClassBasic80.dll
 0002:000001e8       __imp_?Create@SapBuffer@@UAEHXZ 67db81e8     SapClassBasic:SapClassBasic80.dll
 0002:000001ec       __imp_??0SapBuffer@@QAE@PBDHVSapLocation@@@Z 67db81ec     SapClassBasic:SapClassBasic80.dll
 0002:000001f0       __imp_??0SapBuffer@@QAE@HPAVSapXferNode@@HVSapLocation@@@Z 67db81f0     SapClassBasic:SapClassBasic80.dll
 0002:000001f4       __imp_?Destroy@SapBuffer@@UAEHXZ 67db81f4     SapClassBasic:SapClassBasic80.dll
 0002:000001f8       __imp_?GetXferParams@SapXferNode@@UBE?AVSapXferParams@@H@Z 67db81f8     SapClassBasic:SapClassBasic80.dll
 0002:000001fc       __imp_?GetInputXferParams@SapXferNode@@UBE?AVSapXferParams@@H@Z 67db81fc     SapClassBasic:SapClassBasic80.dll
 0002:00000200       __imp_?GetOutputXferParams@SapXferNode@@UBE?AVSapXferParams@@H@Z 67db8200     SapClassBasic:SapClassBasic80.dll
 0002:00000204       __imp_?SetXferParams@SapXferNode@@UAEHVSapXferParams@@H@Z 67db8204     SapClassBasic:SapClassBasic80.dll
 0002:00000208       __imp_?SetInputXferParams@SapXferNode@@UAEHVSapXferParams@@H@Z 67db8208     SapClassBasic:SapClassBasic80.dll
 0002:0000020c       __imp_?SetOutputXferParams@SapXferNode@@UAEHVSapXferParams@@H@Z 67db820c     SapClassBasic:SapClassBasic80.dll
 0002:00000210       __imp_?GetHandle@SapBuffer@@UBEPAU__CORHANDLE@@H@Z 67db8210     SapClassBasic:SapClassBasic80.dll
 0002:00000214       __imp_?GetHandle@SapBuffer@@UBEPAU__CORHANDLE@@XZ 67db8214     SapClassBasic:SapClassBasic80.dll
 0002:00000218       __imp_?GetXferNodeType@SapBuffer@@UAE?AW4XferNodeType@SapXferNode@@XZ 67db8218     SapClassBasic:SapClassBasic80.dll
 0002:0000021c       __imp_??ASapBuffer@@UBEPAU__CORHANDLE@@H@Z 67db821c     SapClassBasic:SapClassBasic80.dll
 0002:00000220       __imp_?GetCount@SapBuffer@@UBEHXZ 67db8220     SapClassBasic:SapClassBasic80.dll
 0002:00000224       __imp_?GetIndex@SapBuffer@@UBEHXZ 67db8224     SapClassBasic:SapClassBasic80.dll
 0002:00000228       __imp_?SetIndex@SapBuffer@@UAEHH@Z 67db8228     SapClassBasic:SapClassBasic80.dll
 0002:0000022c       __imp_?ResetIndex@SapBuffer@@UAEXXZ 67db822c     SapClassBasic:SapClassBasic80.dll
 0002:00000230       __imp_?Next@SapBuffer@@UAEXXZ 67db8230     SapClassBasic:SapClassBasic80.dll
 0002:00000234       __imp_?GetTrash@SapBuffer@@UBEPAU__CORHANDLE@@XZ 67db8234     SapClassBasic:SapClassBasic80.dll
 0002:00000238       __imp_?Empty@SapBuffer@@UAEHH@Z 67db8238     SapClassBasic:SapClassBasic80.dll
 0002:0000023c       __imp_?Empty@SapBuffer@@UAEHXZ 67db823c     SapClassBasic:SapClassBasic80.dll
 0002:00000240       __imp_?EmptyAll@SapBuffer@@UAEHXZ 67db8240     SapClassBasic:SapClassBasic80.dll
 0002:00000244       __imp_?SetCount@SapBuffer@@UAEHH@Z 67db8244     SapClassBasic:SapClassBasic80.dll
 0002:00000248       __imp_?SetWidth@SapBuffer@@UAEHH@Z 67db8248     SapClassBasic:SapClassBasic80.dll
 0002:0000024c       __imp_?SetHeight@SapBuffer@@UAEHH@Z 67db824c     SapClassBasic:SapClassBasic80.dll
 0002:00000250       __imp_?SetFormat@SapBuffer@@UAEHH@Z 67db8250     SapClassBasic:SapClassBasic80.dll
 0002:00000254       __imp_?SetType@SapBuffer@@UAEHH@Z 67db8254     SapClassBasic:SapClassBasic80.dll
 0002:00000258       __imp_?SetPixelDepth@SapBuffer@@UAEHH@Z 67db8258     SapClassBasic:SapClassBasic80.dll
 0002:0000025c       __imp_?SetVirtualAddress@SapBuffer@@UAEHQAPAX@Z 67db825c     SapClassBasic:SapClassBasic80.dll
 0002:00000260       __imp_?SetPhysicalAddress@SapBuffer@@UAEHQAK@Z 67db8260     SapClassBasic:SapClassBasic80.dll
 0002:00000264       __imp_?SetParameters@SapBuffer@@UAEHHQAKHHHH@Z 67db8264     SapClassBasic:SapClassBasic80.dll
 0002:00000268       __imp_?SetParameters@SapBuffer@@UAEHHQAPAXHHHH@Z 67db8268     SapClassBasic:SapClassBasic80.dll
 0002:0000026c       __imp_?SetParameters@SapBuffer@@UAEHHHHHH@Z 67db826c     SapClassBasic:SapClassBasic80.dll
 0002:00000270       __imp_?SetParametersFromFile@SapBuffer@@UAEHPBDH@Z 67db8270     SapClassBasic:SapClassBasic80.dll
 0002:00000274       __imp_?SetFrameRate@SapBuffer@@UAEXM@Z 67db8274     SapClassBasic:SapClassBasic80.dll
 0002:00000278       __imp_?GetAddress@SapBuffer@@UAEHH_KIPAXPAPAX@Z 67db8278     SapClassBasic:SapClassBasic80.dll
 0002:0000027c       __imp_?GetAddress@SapBuffer@@UAEHH_KIPAPAX@Z 67db827c     SapClassBasic:SapClassBasic80.dll
 0002:00000280       __imp_?GetAddress@SapBuffer@@UAEH_KIPAXPAPAX@Z 67db8280     SapClassBasic:SapClassBasic80.dll
 0002:00000284       __imp_?GetAddress@SapBuffer@@UAEH_KIPAPAX@Z 67db8284     SapClassBasic:SapClassBasic80.dll
 0002:00000288       __imp_?GetAddress@SapBuffer@@UAEHHPAXPAPAX@Z 67db8288     SapClassBasic:SapClassBasic80.dll
 0002:0000028c       __imp_?GetAddress@SapBuffer@@UAEHHPAPAX@Z 67db828c     SapClassBasic:SapClassBasic80.dll
 0002:00000290       __imp_?GetAddress@SapBuffer@@UAEHPAXPAPAX@Z 67db8290     SapClassBasic:SapClassBasic80.dll
 0002:00000294       __imp_?GetAddress@SapBuffer@@UAEHPAPAX@Z 67db8294     SapClassBasic:SapClassBasic80.dll
 0002:00000298       __imp_?ReleaseAddress@SapBuffer@@UAEHHPAX@Z 67db8298     SapClassBasic:SapClassBasic80.dll
 0002:0000029c       __imp_?ReleaseAddress@SapBuffer@@UAEHPAX@Z 67db829c     SapClassBasic:SapClassBasic80.dll
 0002:000002a0       __imp_?IsMapped@SapBuffer@@UAEHXZ 67db82a0     SapClassBasic:SapClassBasic80.dll
 0002:000002a4       __imp_?IsMapped@SapBuffer@@UAEHH@Z 67db82a4     SapClassBasic:SapClassBasic80.dll
 0002:000002a8       __imp_?GetCounterStamp@SapBuffer@@UAEHHPAH@Z 67db82a8     SapClassBasic:SapClassBasic80.dll
 0002:000002ac       __imp_?GetCounterStamp@SapBuffer@@UAEHPAH@Z 67db82ac     SapClassBasic:SapClassBasic80.dll
 0002:000002b0       __imp_?GetHostCounterStamp@SapBuffer@@UAEHHPA_K@Z 67db82b0     SapClassBasic:SapClassBasic80.dll
 0002:000002b4       __imp_?GetHostCounterStamp@SapBuffer@@UAEHPA_K@Z 67db82b4     SapClassBasic:SapClassBasic80.dll
 0002:000002b8       __imp_?GetSpaceUsed@SapBuffer@@UAEHHPAH@Z 67db82b8     SapClassBasic:SapClassBasic80.dll
 0002:000002bc       __imp_?GetSpaceUsed@SapBuffer@@UAEHPAH@Z 67db82bc     SapClassBasic:SapClassBasic80.dll
 0002:000002c0       __imp_?GetHandles@SapBuffer@@UBEPAPAU__CORHANDLE@@XZ 67db82c0     SapClassBasic:SapClassBasic80.dll
 0002:000002c4       __imp_?IsCapabilityValid@SapBuffer@@UAEHH@Z 67db82c4     SapClassBasic:SapClassBasic80.dll
 0002:000002c8       __imp_?GetCapability@SapBuffer@@UAEHHHPAX@Z 67db82c8     SapClassBasic:SapClassBasic80.dll
 0002:000002cc       __imp_?GetCapability@SapBuffer@@UAEHHPAX@Z 67db82cc     SapClassBasic:SapClassBasic80.dll
 0002:000002d0       __imp_?IsParameterValid@SapBuffer@@UAEHH@Z 67db82d0     SapClassBasic:SapClassBasic80.dll
 0002:000002d4       __imp_?GetParameter@SapBuffer@@UAEHHHPAX@Z 67db82d4     SapClassBasic:SapClassBasic80.dll
 0002:000002d8       __imp_?GetParameter@SapBuffer@@UAEHHPAX@Z 67db82d8     SapClassBasic:SapClassBasic80.dll
 0002:000002dc       __imp_?SetParameter@SapBuffer@@UAEHHHPAX@Z 67db82dc     SapClassBasic:SapClassBasic80.dll
 0002:000002e0       __imp_?SetParameter@SapBuffer@@UAEHHPAX@Z 67db82e0     SapClassBasic:SapClassBasic80.dll
 0002:000002e4       __imp_?SetParameter@SapBuffer@@UAEHHHH@Z 67db82e4     SapClassBasic:SapClassBasic80.dll
 0002:000002e8       __imp_?SetParameter@SapBuffer@@UAEHHH@Z 67db82e8     SapClassBasic:SapClassBasic80.dll
 0002:000002ec       __imp_?GetParent@SapBuffer@@UAEPAV1@XZ 67db82ec     SapClassBasic:SapClassBasic80.dll
 0002:000002f0       __imp_?GetRoot@SapBuffer@@UAEPAV1@XZ 67db82f0     SapClassBasic:SapClassBasic80.dll
 0002:000002f4       __imp_?SetState@SapBuffer@@UAEHHH@Z 67db82f4     SapClassBasic:SapClassBasic80.dll
 0002:000002f8       __imp_?SetState@SapBuffer@@UAEHH@Z 67db82f8     SapClassBasic:SapClassBasic80.dll
 0002:000002fc       __imp_?SetAllState@SapBuffer@@UAEHH@Z 67db82fc     SapClassBasic:SapClassBasic80.dll
 0002:00000300       __imp_?GetState@SapBuffer@@UAEHHPAH@Z 67db8300     SapClassBasic:SapClassBasic80.dll
 0002:00000304       __imp_?GetState@SapBuffer@@UAEHPAH@Z 67db8304     SapClassBasic:SapClassBasic80.dll
 0002:00000308       __imp_?SetPage@SapBuffer@@UAEHHH@Z 67db8308     SapClassBasic:SapClassBasic80.dll
 0002:0000030c       __imp_?SetPage@SapBuffer@@UAEHH@Z 67db830c     SapClassBasic:SapClassBasic80.dll
 0002:00000310       __imp_?SetAllPage@SapBuffer@@UAEHH@Z 67db8310     SapClassBasic:SapClassBasic80.dll
 0002:00000314       __imp_?GetPage@SapBuffer@@UAEHHPAH@Z 67db8314     SapClassBasic:SapClassBasic80.dll
 0002:00000318       __imp_?GetPage@SapBuffer@@UAEHPAH@Z 67db8318     SapClassBasic:SapClassBasic80.dll
 0002:0000031c       __imp_?Clear@SapBuffer@@UAEHHVSapData@@@Z 67db831c     SapClassBasic:SapClassBasic80.dll
 0002:00000320       __imp_?Clear@SapBuffer@@UAEHVSapData@@@Z 67db8320     SapClassBasic:SapClassBasic80.dll
 0002:00000324       __imp_?Clear@SapBuffer@@UAEHH@Z 67db8324     SapClassBasic:SapClassBasic80.dll
 0002:00000328       __imp_?Clear@SapBuffer@@UAEHXZ 67db8328     SapClassBasic:SapClassBasic80.dll
 0002:0000032c       __imp_?Load@SapBuffer@@UAEHPBDHHH0@Z 67db832c     SapClassBasic:SapClassBasic80.dll
 0002:00000330       __imp_?Save@SapBuffer@@UAEHPBD0HH@Z 67db8330     SapClassBasic:SapClassBasic80.dll
 0002:00000334       __imp_?Read@SapBuffer@@UAEHH_KHPAX@Z 67db8334     SapClassBasic:SapClassBasic80.dll
 0002:00000338       __imp_?Read@SapBuffer@@UAEH_KHPAX@Z 67db8338     SapClassBasic:SapClassBasic80.dll
 0002:0000033c       __imp_?ReadElement@SapBuffer@@UAEHHHPAH00@Z 67db833c     SapClassBasic:SapClassBasic80.dll
 0002:00000340       __imp_?ReadElement@SapBuffer@@UAEHHHHPAVSapData@@@Z 67db8340     SapClassBasic:SapClassBasic80.dll
 0002:00000344       __imp_?ReadElement@SapBuffer@@UAEHHHPAVSapData@@@Z 67db8344     SapClassBasic:SapClassBasic80.dll
 0002:00000348       __imp_?ReadElement@SapBuffer@@UAEHHHHPAX@Z 67db8348     SapClassBasic:SapClassBasic80.dll
 0002:0000034c       __imp_?ReadElement@SapBuffer@@UAEHHHPAX@Z 67db834c     SapClassBasic:SapClassBasic80.dll
 0002:00000350       __imp_?ReadLine@SapBuffer@@UAEHHHHHHPAXPAH@Z 67db8350     SapClassBasic:SapClassBasic80.dll
 0002:00000354       __imp_?ReadLine@SapBuffer@@UAEHHHHHPAXPAH@Z 67db8354     SapClassBasic:SapClassBasic80.dll
 0002:00000358       __imp_?ReadRect@SapBuffer@@UAEHHHHHHPAX@Z 67db8358     SapClassBasic:SapClassBasic80.dll
 0002:0000035c       __imp_?ReadRect@SapBuffer@@UAEHHHHHPAX@Z 67db835c     SapClassBasic:SapClassBasic80.dll
 0002:00000360       __imp_?Write@SapBuffer@@UAEHH_KHPBX@Z 67db8360     SapClassBasic:SapClassBasic80.dll
 0002:00000364       __imp_?Write@SapBuffer@@UAEH_KHPBX@Z 67db8364     SapClassBasic:SapClassBasic80.dll
 0002:00000368       __imp_?WriteElement@SapBuffer@@UAEHHHHVSapData@@@Z 67db8368     SapClassBasic:SapClassBasic80.dll
 0002:0000036c       __imp_?WriteElement@SapBuffer@@UAEHHHVSapData@@@Z 67db836c     SapClassBasic:SapClassBasic80.dll
 0002:00000370       __imp_?WriteElement@SapBuffer@@UAEHHHHPBX@Z 67db8370     SapClassBasic:SapClassBasic80.dll
 0002:00000374       __imp_?WriteElement@SapBuffer@@UAEHHHPBX@Z 67db8374     SapClassBasic:SapClassBasic80.dll
 0002:00000378       __imp_?WriteLine@SapBuffer@@UAEHHHHHHPBXPAH@Z 67db8378     SapClassBasic:SapClassBasic80.dll
 0002:0000037c       __imp_?WriteLine@SapBuffer@@UAEHHHHHPBXPAH@Z 67db837c     SapClassBasic:SapClassBasic80.dll
 0002:00000380       __imp_?WriteRect@SapBuffer@@UAEHHHHHHPBX@Z 67db8380     SapClassBasic:SapClassBasic80.dll
 0002:00000384       __imp_?WriteRect@SapBuffer@@UAEHHHHHPBX@Z 67db8384     SapClassBasic:SapClassBasic80.dll
 0002:00000388       __imp_?Copy@SapBuffer@@UAEHPAV1@HH@Z 67db8388     SapClassBasic:SapClassBasic80.dll
 0002:0000038c       __imp_?Copy@SapBuffer@@UAEHPAV1@@Z 67db838c     SapClassBasic:SapClassBasic80.dll
 0002:00000390       __imp_?CopyAll@SapBuffer@@UAEHPAV1@@Z 67db8390     SapClassBasic:SapClassBasic80.dll
 0002:00000394       __imp_?CopyRect@SapBuffer@@UAEHPAV1@HHHHHHHH@Z 67db8394     SapClassBasic:SapClassBasic80.dll
 0002:00000398       __imp_?ColorConvert@SapBuffer@@UAEHPAV1@HHHHVSapDataFRGB@@PAVSapLut@@@Z 67db8398     SapClassBasic:SapClassBasic80.dll
 0002:0000039c       __imp_?ColorConvert@SapBuffer@@UAEHPAV1@HHVSapDataFRGB@@PAVSapLut@@@Z 67db839c     SapClassBasic:SapClassBasic80.dll
 0002:000003a0       __imp_?ColorWhiteBalance@SapBuffer@@UAEHHHPAVSapDataFRGB@@@Z 67db83a0     SapClassBasic:SapClassBasic80.dll
 0002:000003a4       __imp_?ColorWhiteBalance@SapBuffer@@UAEHHPAVSapDataFRGB@@@Z 67db83a4     SapClassBasic:SapClassBasic80.dll
 0002:000003a8       __imp_?SplitComponents@SapBuffer@@UAEHPAV1@H@Z 67db83a8     SapClassBasic:SapClassBasic80.dll
 0002:000003ac       __imp_?GetDeviationMaxBlack@SapFlatField@@QBEHXZ 67db83ac     SapClassBasic:SapClassBasic80.dll
 0002:000003b0       __imp_?MergeComponents@SapBuffer@@UAEHPAV1@H@Z 67db83b0     SapClassBasic:SapClassBasic80.dll
 0002:000003b4       __imp_?MergeComponents@SapBuffer@@UAEHPAV1@@Z 67db83b4     SapClassBasic:SapClassBasic80.dll
 0002:000003b8       __imp_?Register@SapBuffer@@UAEHPBD@Z 67db83b8     SapClassBasic:SapClassBasic80.dll
 0002:000003bc       __imp_?Unregister@SapBuffer@@UAEHXZ 67db83bc     SapClassBasic:SapClassBasic80.dll
 0002:000003c0       __imp_?GetNumRoi@SapBuffer@@UBEHXZ 67db83c0     SapClassBasic:SapClassBasic80.dll
 0002:000003c4       __imp_?GetRoi@SapBuffer@@UBEQAUtagRECT@@H@Z 67db83c4     SapClassBasic:SapClassBasic80.dll
 0002:000003c8       __imp_?AddRoi@SapBuffer@@UAEHUtagRECT@@@Z 67db83c8     SapClassBasic:SapClassBasic80.dll
 0002:000003cc       __imp_?RemoveAllRoi@SapBuffer@@UAEHXZ 67db83cc     SapClassBasic:SapClassBasic80.dll
 0002:000003d0       __imp_?GetChild@SapBuffer@@UBEPAU__CORHANDLE@@HH@Z 67db83d0     SapClassBasic:SapClassBasic80.dll
 0002:000003d4       __imp_?BayerConvert@SapBuffer@@UAEHPAV1@HHHHVSapDataFRGB@@PAVSapLut@@@Z 67db83d4     SapClassBasic:SapClassBasic80.dll
 0002:000003d8       __imp_?BayerConvert@SapBuffer@@UAEHPAV1@HHVSapDataFRGB@@PAVSapLut@@@Z 67db83d8     SapClassBasic:SapClassBasic80.dll
 0002:000003dc       __imp_?BayerWhiteBalance@SapBuffer@@UAEHHHPAVSapDataFRGB@@@Z 67db83dc     SapClassBasic:SapClassBasic80.dll
 0002:000003e0       __imp_?BayerWhiteBalance@SapBuffer@@UAEHHPAVSapDataFRGB@@@Z 67db83e0     SapClassBasic:SapClassBasic80.dll
 0002:000003e4       __imp_?Construct@SapBuffer@@MAEXPBDPAVSapDisplay@@@Z 67db83e4     SapClassBasic:SapClassBasic80.dll
 0002:000003e8       __imp_?GetLastStatus@SapManager@@SAPBDXZ 67db83e8     SapClassBasic:SapClassBasic80.dll
 0002:000003ec       __imp_?GetVerticalOffset@SapFlatField@@QBEHXZ 67db83ec     SapClassBasic:SapClassBasic80.dll
 0002:000003f0       __imp_?GetNumComponents@SapFlatFieldStats@@QBEHXZ 67db83f0     SapClassBasic:SapClassBasic80.dll
 0002:000003f4       __imp_??1SapFlatFieldStats@@QAE@XZ 67db83f4     SapClassBasic:SapClassBasic80.dll
 0002:000003f8       __imp_??0SapFlatFieldStats@@QAE@XZ 67db83f8     SapClassBasic:SapClassBasic80.dll
 0002:000003fc       __imp_??1SapFlatFieldDefects@@QAE@XZ 67db83fc     SapClassBasic:SapClassBasic80.dll
 0002:00000400       __imp_?GetNumDefects@SapFlatFieldDefects@@QBEHXZ 67db8400     SapClassBasic:SapClassBasic80.dll
 0002:00000404       __imp_?GetDefectRatio@SapFlatFieldDefects@@QBEMXZ 67db8404     SapClassBasic:SapClassBasic80.dll
 0002:00000408       __imp_?GetNumClusters@SapFlatFieldDefects@@QBEHXZ 67db8408     SapClassBasic:SapClassBasic80.dll
 0002:0000040c       __imp_??0SapFlatFieldDefects@@QAE@XZ 67db840c     SapClassBasic:SapClassBasic80.dll
 0002:00000410       __imp_?GetStdDeviation@SapFlatFieldStats@@QBEHH@Z 67db8410     SapClassBasic:SapClassBasic80.dll
 0002:00000414       __imp_?GetLow@SapFlatFieldStats@@QBEHH@Z 67db8414     SapClassBasic:SapClassBasic80.dll
 0002:00000418       __imp_?GetHigh@SapFlatFieldStats@@QBEHH@Z 67db8418     SapClassBasic:SapClassBasic80.dll
 0002:0000041c       __imp_?GetPeakPosition@SapFlatFieldStats@@QBEHH@Z 67db841c     SapClassBasic:SapClassBasic80.dll
 0002:00000420       __imp_?GetPixelRatio@SapFlatFieldStats@@QBEMH@Z 67db8420     SapClassBasic:SapClassBasic80.dll
 0002:00000424       __imp_?GetNumPixels@SapFlatFieldStats@@QBEHH@Z 67db8424     SapClassBasic:SapClassBasic80.dll
 0002:00000428       __imp_?WriteFile@SapAcqDevice@@QAEHPBDH@Z 67db8428     SapClassBasic:SapClassBasic80.dll
 0002:0000042c       __imp_?SetCommandTimeout@SapManager@@SAXH@Z 67db842c     SapClassBasic:SapClassBasic80.dll
 0002:00000430       __imp_?GetCommandTimeout@SapManager@@SAHXZ 67db8430     SapClassBasic:SapClassBasic80.dll
 0002:00000434       __imp_?GetPinNumber@SapGioCallbackInfo@@QBEHXZ 67db8434     SapClassBasic:SapClassBasic80.dll
 0002:00000438       __imp_?GetEventCount@SapGioCallbackInfo@@QBEHXZ 67db8438     SapClassBasic:SapClassBasic80.dll
 0002:0000043c       __imp_?GetContext@SapGioCallbackInfo@@QBEPAXXZ 67db843c     SapClassBasic:SapClassBasic80.dll
 0002:00000440       __imp_?GetNumPins@SapGio@@QBEHXZ 67db8440     SapClassBasic:SapClassBasic80.dll
 0002:00000444       __imp_?SetDisplayStatusMode@SapManager@@SAHHP6AXPAVSapManCallbackInfo@@@ZPAX@Z 67db8444     SapClassBasic:SapClassBasic80.dll
 0002:00000448       __imp_?GetBuffer@SapView@@QBEPAVSapBuffer@@XZ 67db8448     SapClassBasic:SapClassBasic80.dll
 0002:0000044c       __imp_?ZoomVert@SapViewScaleParams@@QBEMXZ 67db844c     SapClassBasic:SapClassBasic80.dll
 0002:00000450       __imp_?ZoomHorz@SapViewScaleParams@@QBEMXZ 67db8450     SapClassBasic:SapClassBasic80.dll
 0002:00000454       __imp_?GetScaleParamsSrc@SapView@@QAEABVSapViewScaleParams@@XZ 67db8454     SapClassBasic:SapClassBasic80.dll
 0002:00000458       __imp_?Top@SapViewScaleParams@@QBEHXZ 67db8458     SapClassBasic:SapClassBasic80.dll
 0002:0000045c       __imp_?Left@SapViewScaleParams@@QBEHXZ 67db845c     SapClassBasic:SapClassBasic80.dll
 0002:00000460       __imp_?GetScaleParamsDst@SapView@@QAEABVSapViewScaleParams@@XZ 67db8460     SapClassBasic:SapClassBasic80.dll
 0002:00000464       __imp_?GetScrollRange@SapView@@QBE?AUtagSIZE@@XZ 67db8464     SapClassBasic:SapClassBasic80.dll
 0002:00000468       __imp_?GetScrollPos@SapView@@QBE?AUtagPOINT@@XZ 67db8468     SapClassBasic:SapClassBasic80.dll
 0002:0000046c       __imp_?Height@SapViewScaleParams@@QBEHXZ 67db846c     SapClassBasic:SapClassBasic80.dll
 0002:00000470       __imp_?Width@SapViewScaleParams@@QBEHXZ 67db8470     SapClassBasic:SapClassBasic80.dll
 0002:00000474       __imp_?GetScalingMode@SapView@@QBE?AW4ScalingMode@1@XZ 67db8474     SapClassBasic:SapClassBasic80.dll
 0002:00000478       __imp_??1SapDataMono@@UAE@XZ 67db8478     SapClassBasic:SapClassBasic80.dll
 0002:0000047c       __imp_?Mono@SapDataMono@@QAEHXZ 67db847c     SapClassBasic:SapClassBasic80.dll
 0002:00000480       __imp_??0SapDataMono@@QAE@XZ 67db8480     SapClassBasic:SapClassBasic80.dll
 0002:00000484       __imp_??1SapData@@UAE@XZ   67db8484     SapClassBasic:SapClassBasic80.dll
 0002:00000488       __imp_??0SapDataRGB@@QAE@ABVSapData@@@Z 67db8488     SapClassBasic:SapClassBasic80.dll
 0002:0000048c       __imp_??0SapData@@QAE@XZ   67db848c     SapClassBasic:SapClassBasic80.dll
 0002:00000490       __imp_??1SapDataRGB@@UAE@XZ 67db8490     SapClassBasic:SapClassBasic80.dll
 0002:00000494       __imp_?Red@SapDataRGB@@QAEHXZ 67db8494     SapClassBasic:SapClassBasic80.dll
 0002:00000498       __imp_?Green@SapDataRGB@@QAEHXZ 67db8498     SapClassBasic:SapClassBasic80.dll
 0002:0000049c       __imp_?Blue@SapDataRGB@@QAEHXZ 67db849c     SapClassBasic:SapClassBasic80.dll
 0002:000004a0       __imp_??0SapDataRGB@@QAE@XZ 67db84a0     SapClassBasic:SapClassBasic80.dll
 0002:000004a4       __imp_??1SapDataRGBA@@UAE@XZ 67db84a4     SapClassBasic:SapClassBasic80.dll
 0002:000004a8       __imp_?Red@SapDataRGBA@@QAEHXZ 67db84a8     SapClassBasic:SapClassBasic80.dll
 0002:000004ac       __imp_?Green@SapDataRGBA@@QAEHXZ 67db84ac     SapClassBasic:SapClassBasic80.dll
 0002:000004b0       __imp_?Blue@SapDataRGBA@@QAEHXZ 67db84b0     SapClassBasic:SapClassBasic80.dll
 0002:000004b4       __imp_??0SapDataRGBA@@QAE@XZ 67db84b4     SapClassBasic:SapClassBasic80.dll
 0002:000004b8       __imp_??1SapDataYUV@@UAE@XZ 67db84b8     SapClassBasic:SapClassBasic80.dll
 0002:000004bc       __imp_?Y@SapDataYUV@@QAEHXZ 67db84bc     SapClassBasic:SapClassBasic80.dll
 0002:000004c0       __imp_?U@SapDataYUV@@QAEHXZ 67db84c0     SapClassBasic:SapClassBasic80.dll
 0002:000004c4       __imp_?V@SapDataYUV@@QAEHXZ 67db84c4     SapClassBasic:SapClassBasic80.dll
 0002:000004c8       __imp_??0SapDataYUV@@QAE@XZ 67db84c8     SapClassBasic:SapClassBasic80.dll
 0002:000004cc       __imp_??1SapDataHSV@@UAE@XZ 67db84cc     SapClassBasic:SapClassBasic80.dll
 0002:000004d0       __imp_?H@SapDataHSV@@QAEHXZ 67db84d0     SapClassBasic:SapClassBasic80.dll
 0002:000004d4       __imp_?S@SapDataHSV@@QAEHXZ 67db84d4     SapClassBasic:SapClassBasic80.dll
 0002:000004d8       __imp_?V@SapDataHSV@@QAEHXZ 67db84d8     SapClassBasic:SapClassBasic80.dll
 0002:000004dc       __imp_??0SapDataHSV@@QAE@XZ 67db84dc     SapClassBasic:SapClassBasic80.dll
 0002:000004e0       __imp_??1SapDataLABA@@UAE@XZ 67db84e0     SapClassBasic:SapClassBasic80.dll
 0002:000004e4       __imp_?L@SapDataLABA@@QAEHXZ 67db84e4     SapClassBasic:SapClassBasic80.dll
 0002:000004e8       __imp_?A@SapDataLABA@@QAEHXZ 67db84e8     SapClassBasic:SapClassBasic80.dll
 0002:000004ec       __imp_?B@SapDataLABA@@QAEHXZ 67db84ec     SapClassBasic:SapClassBasic80.dll
 0002:000004f0       __imp_??0SapDataLABA@@QAE@XZ 67db84f0     SapClassBasic:SapClassBasic80.dll
 0002:000004f4       __imp_??1SapDataLAB@@UAE@XZ 67db84f4     SapClassBasic:SapClassBasic80.dll
 0002:000004f8       __imp_?L@SapDataLAB@@QAEHXZ 67db84f8     SapClassBasic:SapClassBasic80.dll
 0002:000004fc       __imp_?A@SapDataLAB@@QAEHXZ 67db84fc     SapClassBasic:SapClassBasic80.dll
 0002:00000500       __imp_?B@SapDataLAB@@QAEHXZ 67db8500     SapClassBasic:SapClassBasic80.dll
 0002:00000504       __imp_??0SapDataLAB@@QAE@XZ 67db8504     SapClassBasic:SapClassBasic80.dll
 0002:00000508       __imp_??1SapDataHSI@@UAE@XZ 67db8508     SapClassBasic:SapClassBasic80.dll
 0002:0000050c       __imp_?H@SapDataHSI@@QAEHXZ 67db850c     SapClassBasic:SapClassBasic80.dll
 0002:00000510       __imp_?S@SapDataHSI@@QAEHXZ 67db8510     SapClassBasic:SapClassBasic80.dll
 0002:00000514       __imp_?I@SapDataHSI@@QAEHXZ 67db8514     SapClassBasic:SapClassBasic80.dll
 0002:00000518       __imp_??0SapDataHSI@@QAE@XZ 67db8518     SapClassBasic:SapClassBasic80.dll
 0002:0000051c       __imp_?SetRefImage@SapPixProParams@@QAEXH@Z 67db851c     SapClassBasic:SapClassBasic80.dll
 0002:00000520       __imp_?SetBankId@SapPixProParams@@QAEXH@Z 67db8520     SapClassBasic:SapClassBasic80.dll
 0002:00000524       __imp_??1SapPixPro@@UAE@XZ 67db8524     SapClassBasic:SapClassBasic80.dll
 0002:00000528       __imp_??4SapPixPro@@QAEAAV0@ABV0@@Z 67db8528     SapClassBasic:SapClassBasic80.dll
 0002:0000052c       __imp_??0SapPixPro@@QAE@VSapLocation@@PBDPAVSapXferNode@@PAVSapPixProParams@@@Z 67db852c     SapClassBasic:SapClassBasic80.dll
 0002:00000530       __imp_??1SapPixProParams@@QAE@XZ 67db8530     SapClassBasic:SapClassBasic80.dll
 0002:00000534       __imp_?SetConfigIndex@SapPixProParams@@QAEXH@Z 67db8534     SapClassBasic:SapClassBasic80.dll
 0002:00000538       __imp_?SetFunctionIndex@SapPixProParams@@QAEXH@Z 67db8538     SapClassBasic:SapClassBasic80.dll
 0002:0000053c       __imp_?GetParams@SapPixPro@@QBEPBVSapPixProParams@@XZ 67db853c     SapClassBasic:SapClassBasic80.dll
 0002:00000540       __imp_?GetConfigIndex@SapPixProParams@@QBEHXZ 67db8540     SapClassBasic:SapClassBasic80.dll
 0002:00000544       __imp_?GetFunctionIndex@SapPixProParams@@QBEHXZ 67db8544     SapClassBasic:SapClassBasic80.dll
 0002:00000548       __imp_?GetFile@SapPixPro@@QBEPBDXZ 67db8548     SapClassBasic:SapClassBasic80.dll
 0002:0000054c       __imp_?GetFunctionInfo@SapPixPro@@QAEHHPAUCORPPL_FCT_PROP@@PADH@Z 67db854c     SapClassBasic:SapClassBasic80.dll
 0002:00000550       __imp_?GetConfigInfo@SapPixPro@@QAEHHPADH@Z 67db8550     SapClassBasic:SapClassBasic80.dll
 0002:00000554       __imp_?GetNumConfigs@SapPixPro@@QAEHXZ 67db8554     SapClassBasic:SapClassBasic80.dll
 0002:00000558       __imp_?GetNumFunctions@SapPixPro@@QAEHXZ 67db8558     SapClassBasic:SapClassBasic80.dll
 0002:0000055c       __imp_?ReadDesign@SapPixPro@@QAEHPAD@Z 67db855c     SapClassBasic:SapClassBasic80.dll
 0002:00000560       __imp_?SetIntegrateFactor@SapPixProParams@@QAEXH@Z 67db8560     SapClassBasic:SapClassBasic80.dll
 0002:00000564       __imp_?SetIntegrateCount@SapPixProParams@@QAEXH@Z 67db8564     SapClassBasic:SapClassBasic80.dll
 0002:00000568       __imp_?SetWeightingFactor@SapPixProParams@@QAEXH@Z 67db8568     SapClassBasic:SapClassBasic80.dll
 0002:0000056c       __imp_??1SapViewScaleParams@@QAE@XZ 67db856c     SapClassBasic:SapClassBasic80.dll
 0002:00000570       __imp_??1SapManager@@UAE@XZ 67db8570     SapClassBasic:SapClassBasic80.dll
 0002:00000574       __imp_??0SapAcquisition@@QAE@VSapLocation@@@Z 67db8574     SapClassBasic:SapClassBasic80.dll
 0002:00000578       __imp_?GetDeviationMaxWhite@SapFlatField@@QBEHXZ 67db8578     SapClassBasic:SapClassBasic80.dll
 0002:0000057c       __imp_?GetIndex@SapFlatField@@QBEHXZ 67db857c     SapClassBasic:SapClassBasic80.dll
 0002:00000580       __imp_?IsClippedGainOffsetDefects@SapFlatField@@QBEHXZ 67db8580     SapClassBasic:SapClassBasic80.dll
 0002:00000584       __imp_?GetBlackPixelPercentage@SapFlatField@@QBEMXZ 67db8584     SapClassBasic:SapClassBasic80.dll
 0002:00000588       __imp_?GetNumFlatField@SapFlatField@@QBEHXZ 67db8588     SapClassBasic:SapClassBasic80.dll
 0002:0000058c       __imp_?GetAcqDevice@SapFlatField@@QBEPAVSapAcqDevice@@XZ 67db858c     SapClassBasic:SapClassBasic80.dll
 0002:00000590       __imp_??0SapFeature@@QAE@VSapLocation@@@Z 67db8590     SapClassBasic:SapClassBasic80.dll
 0002:00000594       __imp_?Create@SapFeature@@UAEHXZ 67db8594     SapClassBasic:SapClassBasic80.dll
 0002:00000598       __imp_?IsFeatureAvailable@SapAcqDevice@@QAEHPBDPAH@Z 67db8598     SapClassBasic:SapClassBasic80.dll
 0002:0000059c       __imp_?GetFeatureValue@SapAcqDevice@@QAEHPBDPADH@Z 67db859c     SapClassBasic:SapClassBasic80.dll
 0002:000005a0       __imp_??1SapFeature@@UAE@XZ 67db85a0     SapClassBasic:SapClassBasic80.dll
 0002:000005a4       __imp_?GetFileCount@SapAcqDevice@@QAEHPAH@Z 67db85a4     SapClassBasic:SapClassBasic80.dll
 0002:000005a8       __imp_?GetFileNameByIndex@SapAcqDevice@@QAEHHPADH@Z 67db85a8     SapClassBasic:SapClassBasic80.dll
 0002:000005ac       __imp_?GetFeatureInfo@SapAcqDevice@@QAEHPBDPAVSapFeature@@@Z 67db85ac     SapClassBasic:SapClassBasic80.dll
 0002:000005b0       __imp_?GetDisplayName@SapFeature@@QAEHPADH@Z 67db85b0     SapClassBasic:SapClassBasic80.dll
 0002:000005b4       __imp_?Destroy@SapFeature@@UAEHXZ 67db85b4     SapClassBasic:SapClassBasic80.dll
 0002:000005b8       __imp_?IsHardwareEnabled@SapColorConversion@@QBEHXZ 67db85b8     SapClassBasic:SapClassBasic80.dll
 0002:000005bc       __imp_?GetAvailAlign@SapColorConversion@@QBEHXZ 67db85bc     SapClassBasic:SapClassBasic80.dll
 0002:000005c0       __imp_?GetAvailMethod@SapColorConversion@@QBEHXZ 67db85c0     SapClassBasic:SapClassBasic80.dll
 0002:000005c4       __imp_?GetAlign@SapColorConversion@@QBEHXZ 67db85c4     SapClassBasic:SapClassBasic80.dll
 0002:000005c8       __imp_?GetMethod@SapColorConversion@@QBEHXZ 67db85c8     SapClassBasic:SapClassBasic80.dll
 0002:000005cc       __imp_?GetWBGain@SapColorConversion@@QBE?AVSapDataFRGB@@XZ 67db85cc     SapClassBasic:SapClassBasic80.dll
 0002:000005d0       __imp_?GetGamma@SapColorConversion@@QBEMXZ 67db85d0     SapClassBasic:SapClassBasic80.dll
 0002:000005d4       __imp_?IsLutEnabled@SapColorConversion@@QBEHXZ 67db85d4     SapClassBasic:SapClassBasic80.dll
 0002:000005d8       __imp_?IsEnabled@SapColorConversion@@QBEHXZ 67db85d8     SapClassBasic:SapClassBasic80.dll
 0002:000005dc       __imp_?GetCamFile@SapAcquisition@@QBEPBDXZ 67db85dc     SapClassBasic:SapClassBasic80.dll
 0002:000005e0       __imp_?GetVicFile@SapAcquisition@@QBEPBDXZ 67db85e0     SapClassBasic:SapClassBasic80.dll
 0002:000005e4       __imp_??1SapCab@@UAE@XZ    67db85e4     SapClassBasic:SapClassBasic80.dll
 0002:000005e8       __imp_?Construct@SapCab@@MAEXHHPBH@Z 67db85e8     SapClassBasic:SapClassBasic80.dll
 0002:000005ec       __imp_?SetParameter@SapCab@@UAEHHH@Z 67db85ec     SapClassBasic:SapClassBasic80.dll
 0002:000005f0       __imp_?SetParameter@SapCab@@UAEHHPAX@Z 67db85f0     SapClassBasic:SapClassBasic80.dll
 0002:000005f4       __imp_?GetParameter@SapCab@@UAEHHPAX@Z 67db85f4     SapClassBasic:SapClassBasic80.dll
 0002:000005f8       __imp_?GetCapability@SapCab@@UAEHHPAX@Z 67db85f8     SapClassBasic:SapClassBasic80.dll
 0002:000005fc       __imp_?EmptyAll@SapXferNode@@UAEHXZ 67db85fc     SapClassBasic:SapClassBasic80.dll
 0002:00000600       __imp_?Empty@SapXferNode@@UAEHXZ 67db8600     SapClassBasic:SapClassBasic80.dll
 0002:00000604       __imp_??1SapLocation@@UAE@XZ 67db8604     SapClassBasic:SapClassBasic80.dll
 0002:00000608       __imp_?GetAverage@SapFlatFieldStats@@QBEHH@Z 67db8608     SapClassBasic:SapClassBasic80.dll
 0002:0000060c       __imp_?GetGainDivisor@SapFlatField@@QBEHXZ 67db860c     SapClassBasic:SapClassBasic80.dll
 0002:00000610       __imp_??0SapLocation@@QAE@HH@Z 67db8610     SapClassBasic:SapClassBasic80.dll
 0002:00000614       __imp_??1SapAcquisition@@UAE@XZ 67db8614     SapClassBasic:SapClassBasic80.dll
 0002:00000618       __imp_??0SapManager@@QAE@XZ 67db8618     SapClassBasic:SapClassBasic80.dll
 0002:0000061c       __imp_?Empty@SapXferNode@@UAEHH@Z 67db861c     SapClassBasic:SapClassBasic80.dll
 0002:00000620       __imp_?GetTrash@SapXferNode@@UBEPAU__CORHANDLE@@XZ 67db8620     SapClassBasic:SapClassBasic80.dll
 0002:00000624       __imp_?Next@SapXferNode@@UAEXXZ 67db8624     SapClassBasic:SapClassBasic80.dll
 0002:00000628       __imp_?ResetIndex@SapXferNode@@UAEXXZ 67db8628     SapClassBasic:SapClassBasic80.dll
 0002:0000062c       __imp_?SetIndex@SapXferNode@@UAEHH@Z 67db862c     SapClassBasic:SapClassBasic80.dll
 0002:00000630       __imp_?GetIndex@SapXferNode@@UBEHXZ 67db8630     SapClassBasic:SapClassBasic80.dll
 0002:00000634       __imp_?GetCount@SapXferNode@@UBEHXZ 67db8634     SapClassBasic:SapClassBasic80.dll
 0002:00000638       __imp_??ASapXferNode@@UBEPAU__CORHANDLE@@H@Z 67db8638     SapClassBasic:SapClassBasic80.dll
 0002:0000063c       __imp_?IsBuffer@SapXferNode@@UAEHXZ 67db863c     SapClassBasic:SapClassBasic80.dll
 0002:00000640       __imp_?GetXferNodeType@SapCab@@UAE?AW4XferNodeType@SapXferNode@@XZ 67db8640     SapClassBasic:SapClassBasic80.dll
 0002:00000644       __imp_?GetXferParamsFromSrcNode@SapXferNode@@UAEXXZ 67db8644     SapClassBasic:SapClassBasic80.dll
 0002:00000648       __imp_?GetHandle@SapXferNode@@UBEPAU__CORHANDLE@@XZ 67db8648     SapClassBasic:SapClassBasic80.dll
 0002:0000064c       __imp_?GetHandle@SapXferNode@@UBEPAU__CORHANDLE@@H@Z 67db864c     SapClassBasic:SapClassBasic80.dll
 0002:00000650       __imp_?SetOutputXferParams@SapCab@@UAEHVSapXferParams@@H@Z 67db8650     SapClassBasic:SapClassBasic80.dll
 0002:00000654       __imp_?SetInputXferParams@SapCab@@UAEHVSapXferParams@@H@Z 67db8654     SapClassBasic:SapClassBasic80.dll
 0002:00000658       __imp_?SetXferParams@SapCab@@UAEHVSapXferParams@@H@Z 67db8658     SapClassBasic:SapClassBasic80.dll
 0002:0000065c       __imp_?SetSrcNode@SapXferNode@@UAEHPAV1@H@Z 67db865c     SapClassBasic:SapClassBasic80.dll
 0002:00000660       __imp_?GetOutputXferParams@SapCab@@UBE?AVSapXferParams@@H@Z 67db8660     SapClassBasic:SapClassBasic80.dll
 0002:00000664       __imp_?GetInputXferParams@SapCab@@UBE?AVSapXferParams@@H@Z 67db8664     SapClassBasic:SapClassBasic80.dll
 0002:00000668       __imp_?GetXferParams@SapCab@@UBE?AVSapXferParams@@H@Z 67db8668     SapClassBasic:SapClassBasic80.dll
 0002:0000066c       __imp_?Destroy@SapCab@@UAEHXZ 67db866c     SapClassBasic:SapClassBasic80.dll
 0002:00000670       __imp_?Create@SapCab@@UAEHXZ 67db8670     SapClassBasic:SapClassBasic80.dll
 0002:00000674       __imp_??0SapLocation@@QAE@ABV0@H@Z 67db8674     SapClassBasic:SapClassBasic80.dll
 0002:00000678       __imp_??0SapCab@@QAE@VSapLocation@@PAVSapXferNode@@@Z 67db8678     SapClassBasic:SapClassBasic80.dll
 0002:0000067c       __imp_?GetPixelDepthMin@SapManager@@SAHH@Z 67db867c     SapClassBasic:SapClassBasic80.dll
 0002:00000680       __imp_?GetPixelDepthMax@SapManager@@SAHH@Z 67db8680     SapClassBasic:SapClassBasic80.dll
 0002:00000684       __imp_??0SapBuffer@@QAE@HHHHHVSapLocation@@@Z 67db8684     SapClassBasic:SapClassBasic80.dll
 0002:00000688       __imp_??0SapLocation@@QAE@XZ 67db8688     SapClassBasic:SapClassBasic80.dll
 0002:0000068c       __imp_?GetWidth@SapBuffer@@QBEHXZ 67db868c     SapClassBasic:SapClassBasic80.dll
 0002:00000690       __imp_?GetHeight@SapBuffer@@QBEHXZ 67db8690     SapClassBasic:SapClassBasic80.dll
 0002:00000694       __imp_?GetFormat@SapBuffer@@QBEHXZ 67db8694     SapClassBasic:SapClassBasic80.dll
 0002:00000698       __imp_?GetType@SapBuffer@@QBEHXZ 67db8698     SapClassBasic:SapClassBasic80.dll
 0002:0000069c       __imp_?GetPixelDepth@SapBuffer@@QBEHXZ 67db869c     SapClassBasic:SapClassBasic80.dll
 0002:000006a0       __imp_?GetSrcNode@SapXferNode@@QBEPAV1@XZ 67db86a0     SapClassBasic:SapClassBasic80.dll
 0002:000006a4       __imp_??4SapLocation@@QAEAAV0@ABV0@@Z 67db86a4     SapClassBasic:SapClassBasic80.dll
 0002:000006a8       __imp_?IsBufferTypeSupported@SapBuffer@@SAHVSapLocation@@H@Z 67db86a8     SapClassBasic:SapClassBasic80.dll
 0002:000006ac       __imp_??1SapBuffer@@UAE@XZ 67db86ac     SapClassBasic:SapClassBasic80.dll
 0002:000006b0       __imp_??BSapManager@@QBEHXZ 67db86b0     SapClassBasic:SapClassBasic80.dll
 0002:000006b4       __imp_??0SapDataFRGB@@QAE@MMM@Z 67db86b4     SapClassBasic:SapClassBasic80.dll
 0002:000006b8       __imp_?IsSoftware@SapBayer@@QBEHXZ 67db86b8     SapClassBasic:SapClassBasic80.dll
 0002:000006bc       __imp_?GetAvailAlign@SapBayer@@QBEHXZ 67db86bc     SapClassBasic:SapClassBasic80.dll
 0002:000006c0       __imp_?GetAvailMethod@SapBayer@@QBEHXZ 67db86c0     SapClassBasic:SapClassBasic80.dll
 0002:000006c4       __imp_?GetAlign@SapBayer@@QBEHXZ 67db86c4     SapClassBasic:SapClassBasic80.dll
 0002:000006c8       __imp_?GetMethod@SapBayer@@QBEHXZ 67db86c8     SapClassBasic:SapClassBasic80.dll
 0002:000006cc       __imp_?GetWBGain@SapBayer@@QBE?AVSapDataFRGB@@XZ 67db86cc     SapClassBasic:SapClassBasic80.dll
 0002:000006d0       __imp_?Red@SapDataFRGB@@QAEMXZ 67db86d0     SapClassBasic:SapClassBasic80.dll
 0002:000006d4       __imp_?Green@SapDataFRGB@@QAEMXZ 67db86d4     SapClassBasic:SapClassBasic80.dll
 0002:000006d8       __imp_?Blue@SapDataFRGB@@QAEMXZ 67db86d8     SapClassBasic:SapClassBasic80.dll
 0002:000006dc       __imp_?GetGamma@SapBayer@@QBEMXZ 67db86dc     SapClassBasic:SapClassBasic80.dll
 0002:000006e0       __imp_?IsLutEnabled@SapBayer@@QBEHXZ 67db86e0     SapClassBasic:SapClassBasic80.dll
 0002:000006e4       __imp_?IsEnabled@SapBayer@@QBEHXZ 67db86e4     SapClassBasic:SapClassBasic80.dll
 0002:000006e8       __imp_??1SapDataFRGB@@UAE@XZ 67db86e8     SapClassBasic:SapClassBasic80.dll
 0002:000006ec       __imp_?DisplayStatus@SapManager@@SAIPBDI@Z 67db86ec     SapClassBasic:SapClassBasic80.dll
 0002:000006f0       __imp_?GetResourceCount@SapManager@@SAHVSapLocation@@H@Z 67db86f0     SapClassBasic:SapClassBasic80.dll
 0002:000006f4       __imp_?GetServerIndex@SapManager@@SAHPBD@Z 67db86f4     SapClassBasic:SapClassBasic80.dll
 0002:000006f8       __imp_?GetResourceCount@SapManager@@SAHPBDH@Z 67db86f8     SapClassBasic:SapClassBasic80.dll
 0002:000006fc       __imp_?GetResourceName@SapManager@@SAHPBDHHPADH@Z 67db86fc     SapClassBasic:SapClassBasic80.dll
 0002:00000700       __imp_?IsResourceAvailable@SapManager@@SAHPBDHH@Z 67db8700     SapClassBasic:SapClassBasic80.dll
 0002:00000704       __imp_?GetServerCount@SapManager@@SAHXZ 67db8704     SapClassBasic:SapClassBasic80.dll
 0002:00000708       __imp_?GetResourceCount@SapManager@@SAHHH@Z 67db8708     SapClassBasic:SapClassBasic80.dll
 0002:0000070c       __imp_?GetServerName@SapManager@@SAHHPADH@Z 67db870c     SapClassBasic:SapClassBasic80.dll
 0002:00000710       __imp_?SetLocation@SapXferNode@@QAEHVSapLocation@@@Z 67db8710     SapClassBasic:SapClassBasic80.dll
 0002:00000714       __imp_??0SapLocation@@QAE@PBDH@Z 67db8714     SapClassBasic:SapClassBasic80.dll
 0002:00000718       __imp_??4SapAcquisition@@QAEAAV0@ABV0@@Z 67db8718     SapClassBasic:SapClassBasic80.dll
 0002:0000071c       __imp_?GetLocation@SapXferNode@@QBE?AVSapLocation@@XZ 67db871c     SapClassBasic:SapClassBasic80.dll
 0002:00000720       __imp_?GetConfigFile@SapAcquisition@@QBEPBDXZ 67db8720     SapClassBasic:SapClassBasic80.dll
 0002:00000724       __imp_??0SapLocation@@QAE@ABV0@@Z 67db8724     SapClassBasic:SapClassBasic80.dll
 0002:00000728       __imp_?GetServerName@SapManager@@SAHVSapLocation@@PADH@Z 67db8728     SapClassBasic:SapClassBasic80.dll
 0002:0000072c       __imp_?SplitComponents@SapBuffer@@UAEHPAV1@@Z 67db872c     SapClassBasic:SapClassBasic80.dll
 0002:00000730       __imp_?GetResourceIndex@SapLocation@@QBEHXZ 67db8730     SapClassBasic:SapClassBasic80.dll
 0002:00000734       \177SapClassBasic80_NULL_THUNK_DATA 67db8734     SapClassBasic:SapClassBasic80.dll
 0002:00000738       __imp__SubtractRect@12     67db8738     user32:USER32.dll
 0002:0000073c       __imp__IntersectRect@12    67db873c     user32:USER32.dll
 0002:00000740       __imp__OffsetRect@12       67db8740     user32:USER32.dll
 0002:00000744       __imp__InflateRect@12      67db8744     user32:USER32.dll
 0002:00000748       __imp__EqualRect@8         67db8748     user32:USER32.dll
 0002:0000074c       __imp__SetRectEmpty@4      67db874c     user32:USER32.dll
 0002:00000750       __imp__SetRect@20          67db8750     user32:USER32.dll
 0002:00000754       __imp__PtInRect@12         67db8754     user32:USER32.dll
 0002:00000758       __imp__IsRectEmpty@4       67db8758     user32:USER32.dll
 0002:0000075c       __imp__CopyRect@8          67db875c     user32:USER32.dll
 0002:00000760       __imp__GetCursorPos@4      67db8760     user32:USER32.dll
 0002:00000764       __imp__IsIconic@4          67db8764     user32:USER32.dll
 0002:00000768       __imp__SetForegroundWindow@4 67db8768     user32:USER32.dll
 0002:0000076c       __imp__SetDlgItemTextA@12  67db876c     user32:USER32.dll
 0002:00000770       __imp__GetFocus@0          67db8770     user32:USER32.dll
 0002:00000774       __imp__UnionRect@12        67db8774     user32:USER32.dll
 0002:00000778       \177USER32_NULL_THUNK_DATA 67db8778     user32:USER32.dll
 0002:0000077c       __imp_?SetCurSel@CComboBox@@QAEHH@Z 67db877c     mfc100d:mfc100d.dll
 0002:00000780       __imp_?SelectString@CComboBox@@QAEHHPBD@Z 67db8780     mfc100d:mfc100d.dll
 0002:00000784       __imp_?SetItemData@CComboBox@@QAEHHK@Z 67db8784     mfc100d:mfc100d.dll
 0002:00000788       __imp_?GetCount@CComboBox@@QBEHXZ 67db8788     mfc100d:mfc100d.dll
 0002:0000078c       __imp_?AddString@CComboBox@@QAEHPBD@Z 67db878c     mfc100d:mfc100d.dll
 0002:00000790       __imp_?ResetContent@CComboBox@@QAEXXZ 67db8790     mfc100d:mfc100d.dll
 0002:00000794       __imp_?GetPathName@CFileDialog@@QBE?AV?$CStringT@DV?$StrTraitMFC_DLL@DV?$ChTraitsCRT@D@ATL@@@@@ATL@@XZ 67db8794     mfc100d:mfc100d.dll
 0002:00000798       __imp_??1CFileDialog@@UAE@XZ 67db8798     mfc100d:mfc100d.dll
 0002:0000079c       __imp_?ReleaseBuffer@?$CSimpleStringT@D$00@ATL@@QAEXH@Z 67db879c     mfc100d:mfc100d.dll
 0002:000007a0       __imp_?DoModal@CFileDialog@@UAEHXZ 67db87a0     mfc100d:mfc100d.dll
 0002:000007a4       __imp_?GetOFN@CFileDialog@@QAEAAUtagOFNA@@XZ 67db87a4     mfc100d:mfc100d.dll
 0002:000007a8       __imp_?GetBuffer@?$CSimpleStringT@D$00@ATL@@QAEPADH@Z 67db87a8     mfc100d:mfc100d.dll
 0002:000007ac       __imp_??0CFileDialog@@QAE@HPBD0K0PAVCWnd@@KH@Z 67db87ac     mfc100d:mfc100d.dll
 0002:000007b0       __imp_?UpdateData@CWnd@@QAEHH@Z 67db87b0     mfc100d:mfc100d.dll
 0002:000007b4       __imp_?EnableWindow@CWnd@@QAEHH@Z 67db87b4     mfc100d:mfc100d.dll
 0002:000007b8       __imp_?GetDlgItem@CWnd@@QBEPAV1@H@Z 67db87b8     mfc100d:mfc100d.dll
 0002:000007bc       __imp_?GetItemData@CComboBox@@QBEKH@Z 67db87bc     mfc100d:mfc100d.dll
 0002:000007c0       __imp_?GetCurSel@CComboBox@@QBEHXZ 67db87c0     mfc100d:mfc100d.dll
 0002:000007c4       __imp_?MessageBoxA@CWnd@@QAEHPBD0I@Z 67db87c4     mfc100d:mfc100d.dll
 0002:000007c8       __imp_?CompareNoCase@?$CStringT@DV?$StrTraitMFC_DLL@DV?$ChTraitsCRT@D@ATL@@@@@ATL@@QBEHPBD@Z 67db87c8     mfc100d:mfc100d.dll
 0002:000007cc       __imp_?GetBuffer@?$CSimpleStringT@D$00@ATL@@QAEPADXZ 67db87cc     mfc100d:mfc100d.dll
 0002:000007d0       __imp_?Concatenate@?$CSimpleStringT@D$00@ATL@@KAXAAV12@PBDH1H@Z 67db87d0     mfc100d:mfc100d.dll
 0002:000007d4       __imp_?GetLength@?$CSimpleStringT@D$00@ATL@@QBEHXZ 67db87d4     mfc100d:mfc100d.dll
 0002:000007d8       __imp_??0?$CStringT@DV?$StrTraitMFC_DLL@DV?$ChTraitsCRT@D@ATL@@@@@ATL@@QAE@PAUIAtlStringMgr@1@@Z 67db87d8     mfc100d:mfc100d.dll
 0002:000007dc       __imp_?GetManager@?$CStringT@DV?$StrTraitMFC_DLL@DV?$ChTraitsCRT@D@ATL@@@@@ATL@@QBEPAUIAtlStringMgr@2@XZ 67db87dc     mfc100d:mfc100d.dll
 0002:000007e0       __imp_?OnVScroll@CWnd@@IAEXIIPAVCScrollBar@@@Z 67db87e0     mfc100d:mfc100d.dll
 0002:000007e4       __imp_?GetCheck@CButton@@QBEHXZ 67db87e4     mfc100d:mfc100d.dll
 0002:000007e8       __imp_?SetCheck@CButton@@QAEXH@Z 67db87e8     mfc100d:mfc100d.dll
 0002:000007ec       __imp_?AfxMessageBox@@YGHPBDII@Z 67db87ec     mfc100d:mfc100d.dll
 0002:000007f0       __imp_??1CScrollBar@@UAE@XZ 67db87f0     mfc100d:mfc100d.dll
 0002:000007f4       __imp_??0CScrollBar@@QAE@XZ 67db87f4     mfc100d:mfc100d.dll
 0002:000007f8       __imp_?DDX_Text@@YGXPAVCDataExchange@@HAAH@Z 67db87f8     mfc100d:mfc100d.dll
 0002:000007fc       __imp_?DDV_MinMaxInt@@YGXPAVCDataExchange@@HHH@Z 67db87fc     mfc100d:mfc100d.dll
 0002:00000800       __imp_?GetDlgCtrlID@CWnd@@QBEHXZ 67db8800     mfc100d:mfc100d.dll
 0002:00000804       __imp_?DDX_Radio@@YGXPAVCDataExchange@@HAAH@Z 67db8804     mfc100d:mfc100d.dll
 0002:00000808       __imp_?DDX_Text@@YGXPAVCDataExchange@@HAAM@Z 67db8808     mfc100d:mfc100d.dll
 0002:0000080c       __imp_?OnShowWindow@CWnd@@IAEXHI@Z 67db880c     mfc100d:mfc100d.dll
 0002:00000810       __imp_?AfxFindResourceHandle@@YGPAUHINSTANCE__@@PBD0@Z 67db8810     mfc100d:mfc100d.dll
 0002:00000814       __imp_?DDV_MinMaxUInt@@YGXPAVCDataExchange@@III@Z 67db8814     mfc100d:mfc100d.dll
 0002:00000818       __imp_??3@YAXPAXPBDH@Z     67db8818     mfc100d:mfc100d.dll
 0002:0000081c       __imp_??2@YAPAXIPBDH@Z     67db881c     mfc100d:mfc100d.dll
 0002:00000820       __imp_?DDV_MinMaxDWord@@YGXPAVCDataExchange@@KKK@Z 67db8820     mfc100d:mfc100d.dll
 0002:00000824       __imp_?IsWindowEnabled@CWnd@@QBEHXZ 67db8824     mfc100d:mfc100d.dll
 0002:00000828       __imp_?InsertItem@CTabCtrl@@QAEJHPBD@Z 67db8828     mfc100d:mfc100d.dll
 0002:0000082c       __imp_?Format@?$CStringT@DV?$StrTraitMFC_DLL@DV?$ChTraitsCRT@D@ATL@@@@@ATL@@QAAXPBDZZ 67db882c     mfc100d:mfc100d.dll
 0002:00000830       __imp_?GetCurSel@CTabCtrl@@QBEHXZ 67db8830     mfc100d:mfc100d.dll
 0002:00000834       __imp_?GetDlgItemTextA@CWnd@@QBEHHPADH@Z 67db8834     mfc100d:mfc100d.dll
 0002:00000838       __imp_?SetDroppedWidth@CComboBox@@QAEHI@Z 67db8838     mfc100d:mfc100d.dll
 0002:0000083c       __imp_?GetText@CListBox@@QBEHHPAD@Z 67db883c     mfc100d:mfc100d.dll
 0002:00000840       __imp_?GetCount@CListBox@@QBEHXZ 67db8840     mfc100d:mfc100d.dll
 0002:00000844       __imp_?Dir@CListBox@@QAEHIPBD@Z 67db8844     mfc100d:mfc100d.dll
 0002:00000848       __imp_?ResetContent@CListBox@@QAEXXZ 67db8848     mfc100d:mfc100d.dll
 0002:0000084c       __imp_??_U@YAPAXIPBDH@Z    67db884c     mfc100d:mfc100d.dll
 0002:00000850       __imp_?EndWaitCursor@CCmdTarget@@QAEXXZ 67db8850     mfc100d:mfc100d.dll
 0002:00000854       __imp_?BeginWaitCursor@CCmdTarget@@QAEXXZ 67db8854     mfc100d:mfc100d.dll
 0002:00000858       __imp_??Y?$CStringT@DV?$StrTraitMFC_DLL@DV?$ChTraitsCRT@D@ATL@@@@@ATL@@QAEAAV01@PBD@Z 67db8858     mfc100d:mfc100d.dll
 0002:0000085c       __imp_?Replace@?$CStringT@DV?$StrTraitMFC_DLL@DV?$ChTraitsCRT@D@ATL@@@@@ATL@@QAEHPBD0@Z 67db885c     mfc100d:mfc100d.dll
 0002:00000860       __imp_?StringLength@?$CSimpleStringT@D$00@ATL@@SAHPBD@Z 67db8860     mfc100d:mfc100d.dll
 0002:00000864       __imp_?DDX_Text@@YGXPAVCDataExchange@@HAAV?$CStringT@DV?$StrTraitMFC_DLL@DV?$ChTraitsCRT@D@ATL@@@@@ATL@@@Z 67db8864     mfc100d:mfc100d.dll
 0002:00000868       __imp_??1CSliderCtrl@@UAE@XZ 67db8868     mfc100d:mfc100d.dll
 0002:0000086c       __imp_??0CSliderCtrl@@QAE@XZ 67db886c     mfc100d:mfc100d.dll
 0002:00000870       __imp_?DDX_Text@@YGXPAVCDataExchange@@HAAJ@Z 67db8870     mfc100d:mfc100d.dll
 0002:00000874       __imp_?CheckRadioButton@CWnd@@QAEXHHH@Z 67db8874     mfc100d:mfc100d.dll
 0002:00000878       __imp_?SetPos@CSliderCtrl@@QAEXH@Z 67db8878     mfc100d:mfc100d.dll
 0002:0000087c       __imp_?SetPageSize@CSliderCtrl@@QAEHH@Z 67db887c     mfc100d:mfc100d.dll
 0002:00000880       __imp_?SetTicFreq@CSliderCtrl@@QAEXH@Z 67db8880     mfc100d:mfc100d.dll
 0002:00000884       __imp_?SetRange@CSliderCtrl@@QAEXHHH@Z 67db8884     mfc100d:mfc100d.dll
 0002:00000888       __imp_?OnHScroll@CWnd@@IAEXIIPAVCScrollBar@@@Z 67db8888     mfc100d:mfc100d.dll
 0002:0000088c       __imp_??1CStatic@@UAE@XZ   67db888c     mfc100d:mfc100d.dll
 0002:00000890       __imp_??1CButton@@UAE@XZ   67db8890     mfc100d:mfc100d.dll
 0002:00000894       __imp_??0CStatic@@QAE@XZ   67db8894     mfc100d:mfc100d.dll
 0002:00000898       __imp_??0CButton@@QAE@XZ   67db8898     mfc100d:mfc100d.dll
 0002:0000089c       __imp_?Find@?$CStringT@DV?$StrTraitMFC_DLL@DV?$ChTraitsCRT@D@ATL@@@@@ATL@@QBEHPBDH@Z 67db889c     mfc100d:mfc100d.dll
 0002:000008a0       __imp_?ShowWindow@CWnd@@QAEHH@Z 67db88a0     mfc100d:mfc100d.dll
 0002:000008a4       __imp_?SetWindowTextA@CWnd@@QAEXPBD@Z 67db88a4     mfc100d:mfc100d.dll
 0002:000008a8       __imp_?OnDestroy@CWnd@@IAEXXZ 67db88a8     mfc100d:mfc100d.dll
 0002:000008ac       __imp_?GetParent@CWnd@@QBEPAV1@XZ 67db88ac     mfc100d:mfc100d.dll
 0002:000008b0       __imp_?SetCurSel@CListBox@@QAEHH@Z 67db88b0     mfc100d:mfc100d.dll
 0002:000008b4       __imp_?AddString@CListBox@@QAEHPBD@Z 67db88b4     mfc100d:mfc100d.dll
 0002:000008b8       __imp_?ReleaseDC@CWnd@@QAEHPAVCDC@@@Z 67db88b8     mfc100d:mfc100d.dll
 0002:000008bc       __imp_?SetHorizontalExtent@CListBox@@QAEXH@Z 67db88bc     mfc100d:mfc100d.dll
 0002:000008c0       __imp_?GetHorizontalExtent@CListBox@@QBEHXZ 67db88c0     mfc100d:mfc100d.dll
 0002:000008c4       __imp_?GetTextExtent@CDC@@QBE?AVCSize@@ABV?$CStringT@DV?$StrTraitMFC_DLL@DV?$ChTraitsCRT@D@ATL@@@@@ATL@@@Z 67db88c4     mfc100d:mfc100d.dll
 0002:000008c8       __imp_?GetDC@CWnd@@QAEPAVCDC@@XZ 67db88c8     mfc100d:mfc100d.dll
 0002:000008cc       __imp_??Y?$CStringT@DV?$StrTraitMFC_DLL@DV?$ChTraitsCRT@D@ATL@@@@@ATL@@QAEAAV01@ABV?$CSimpleStringT@D$00@1@@Z 67db88cc     mfc100d:mfc100d.dll
 0002:000008d0       __imp_??1CWaitCursor@@QAE@XZ 67db88d0     mfc100d:mfc100d.dll
 0002:000008d4       __imp_??0CWaitCursor@@QAE@XZ 67db88d4     mfc100d:mfc100d.dll
 0002:000008d8       __imp_??0CBrush@@QAE@XZ    67db88d8     mfc100d:mfc100d.dll
 0002:000008dc       __imp_?MoveWindow@CWnd@@QAEXPBUtagRECT@@H@Z 67db88dc     mfc100d:mfc100d.dll
 0002:000008e0       __imp_?GetClientRect@CWnd@@QBEXPAUtagRECT@@@Z 67db88e0     mfc100d:mfc100d.dll
 0002:000008e4       __imp_?GetSafeHandle@CGdiObject@@QBEPAXXZ 67db88e4     mfc100d:mfc100d.dll
 0002:000008e8       __imp_?OnCtlColor@CWnd@@IAEPAUHBRUSH__@@PAVCDC@@PAV1@I@Z 67db88e8     mfc100d:mfc100d.dll
 0002:000008ec       __imp_?SetButtonStyle@CButton@@QAEXIH@Z 67db88ec     mfc100d:mfc100d.dll
 0002:000008f0       __imp_?GetWindowTextA@CWnd@@QBEXAAV?$CStringT@DV?$StrTraitMFC_DLL@DV?$ChTraitsCRT@D@ATL@@@@@ATL@@@Z 67db88f0     mfc100d:mfc100d.dll
 0002:000008f4       __imp_??1CBrush@@UAE@XZ    67db88f4     mfc100d:mfc100d.dll
 0002:000008f8       __imp_?RedrawWindow@CWnd@@QAEHPBUtagRECT@@PAVCRgn@@I@Z 67db88f8     mfc100d:mfc100d.dll
 0002:000008fc       __imp_?ModifyStyle@CWnd@@QAEHKKI@Z 67db88fc     mfc100d:mfc100d.dll
 0002:00000900       __imp_??0CRectTracker@@QAE@XZ 67db8900     mfc100d:mfc100d.dll
 0002:00000904       __imp_?DrawTrackerRect@CRectTracker@@UAEXPBUtagRECT@@PAVCWnd@@PAVCDC@@1@Z 67db8904     mfc100d:mfc100d.dll
 0002:00000908       __imp_?OnChangedRect@CRectTracker@@UAEXABVCRect@@@Z 67db8908     mfc100d:mfc100d.dll
 0002:0000090c       __imp_?GetHandleMask@CRectTracker@@UBEIXZ 67db890c     mfc100d:mfc100d.dll
 0002:00000910       __imp_?GetHandleSize@CRectTracker@@MBEHPBUtagRECT@@@Z 67db8910     mfc100d:mfc100d.dll
 0002:00000914       __imp_?GetScrollInfo@CWnd@@QAEHHPAUtagSCROLLINFO@@I@Z 67db8914     mfc100d:mfc100d.dll
 0002:00000918       __imp_?GetScrollInfo@CScrollBar@@QAEHPAUtagSCROLLINFO@@I@Z 67db8918     mfc100d:mfc100d.dll
 0002:0000091c       __imp_?SetScrollInfo@CWnd@@QAEHHPAUtagSCROLLINFO@@H@Z 67db891c     mfc100d:mfc100d.dll
 0002:00000920       __imp_?SetScrollInfo@CScrollBar@@QAEHPAUtagSCROLLINFO@@H@Z 67db8920     mfc100d:mfc100d.dll
 0002:00000924       __imp_?FillSolidRect@CDC@@QAEXPBUtagRECT@@K@Z 67db8924     mfc100d:mfc100d.dll
 0002:00000928       __imp_?GetBkColor@CDC@@QBEKXZ 67db8928     mfc100d:mfc100d.dll
 0002:0000092c       __imp_?InvalidateRect@CWnd@@QAEXPBUtagRECT@@H@Z 67db892c     mfc100d:mfc100d.dll
 0002:00000930       __imp_?MoveWindow@CWnd@@QAEXHHHHH@Z 67db8930     mfc100d:mfc100d.dll
 0002:00000934       __imp_?ScreenToClient@CWnd@@QBEXPAUtagRECT@@@Z 67db8934     mfc100d:mfc100d.dll
 0002:00000938       __imp_?ShowScrollBar@CScrollBar@@QAEXH@Z 67db8938     mfc100d:mfc100d.dll
 0002:0000093c       __imp_??1CRgn@@UAE@XZ      67db893c     mfc100d:mfc100d.dll
 0002:00000940       __imp_??1CClientDC@@UAE@XZ 67db8940     mfc100d:mfc100d.dll
 0002:00000944       __imp_?Draw@CRectTracker@@QBEXPAVCDC@@@Z 67db8944     mfc100d:mfc100d.dll
 0002:00000948       __imp_?SetWindowOrg@CDC@@QAE?AVCPoint@@HH@Z 67db8948     mfc100d:mfc100d.dll
 0002:0000094c       __imp_?SelectClipRgn@CDC@@QAEHPAVCRgn@@@Z 67db894c     mfc100d:mfc100d.dll
 0002:00000950       __imp_??0CClientDC@@QAE@PAVCWnd@@@Z 67db8950     mfc100d:mfc100d.dll
 0002:00000954       __imp_?CreateRectRgnIndirect@CRgn@@QAEHPBUtagRECT@@@Z 67db8954     mfc100d:mfc100d.dll
 0002:00000958       __imp_??0CRgn@@QAE@XZ      67db8958     mfc100d:mfc100d.dll
 0002:0000095c       __imp_?Track@CRectTracker@@QAEHPAVCWnd@@VCPoint@@H0@Z 67db895c     mfc100d:mfc100d.dll
 0002:00000960       __imp_?TrackRubberBand@CRectTracker@@QAEHPAVCWnd@@VCPoint@@H@Z 67db8960     mfc100d:mfc100d.dll
 0002:00000964       __imp_?HitTest@CRectTracker@@QBEHVCPoint@@@Z 67db8964     mfc100d:mfc100d.dll
 0002:00000968       __imp_?SetCursor@CRectTracker@@QBEHPAVCWnd@@I@Z 67db8968     mfc100d:mfc100d.dll
 0002:0000096c       __imp_?ScreenToClient@CWnd@@QBEXPAUtagPOINT@@@Z 67db896c     mfc100d:mfc100d.dll
 0002:00000970       __imp_??1CRectTracker@@UAE@XZ 67db8970     mfc100d:mfc100d.dll
 0002:00000974       __imp_?GetThisInterfaceMap@CWnd@@KGPBUAFX_INTERFACEMAP@@XZ 67db8974     mfc100d:mfc100d.dll
 0002:00000978       __imp_?GetThisDispatchMap@CCmdTarget@@KGPBUAFX_DISPMAP@@XZ 67db8978     mfc100d:mfc100d.dll
 0002:0000097c       __imp_?DDX_Text@@YGXPAVCDataExchange@@HAAI@Z 67db897c     mfc100d:mfc100d.dll
 0002:00000980       __imp_?GetThisClass@CFileDialog@@SGPAUCRuntimeClass@@XZ 67db8980     mfc100d:mfc100d.dll
 0002:00000984       __imp_?Dump@CFileDialog@@UBEXAAVCDumpContext@@@Z 67db8984     mfc100d:mfc100d.dll
 0002:00000988       __imp_?GetInterfaceMap@CFileDialog@@MBEPBUAFX_INTERFACEMAP@@XZ 67db8988     mfc100d:mfc100d.dll
 0002:0000098c       __imp_?OnNotify@CFileDialog@@MAEHIJPAJ@Z 67db898c     mfc100d:mfc100d.dll
 0002:00000990       __imp_?OnOK@CCommonDialog@@MAEXXZ 67db8990     mfc100d:mfc100d.dll
 0002:00000994       __imp_?OnCancel@CCommonDialog@@MAEXXZ 67db8994     mfc100d:mfc100d.dll
 0002:00000998       __imp_?GetLBText@CComboBox@@QBEXHAAV?$CStringT@DV?$StrTraitMFC_DLL@DV?$ChTraitsCRT@D@ATL@@@@@ATL@@@Z 67db8998     mfc100d:mfc100d.dll
 0002:0000099c       __imp_?OnShareViolation@CFileDialog@@MAEIPBD@Z 67db899c     mfc100d:mfc100d.dll
 0002:000009a0       __imp_?OnFileNameOK@CFileDialog@@MAEHXZ 67db89a0     mfc100d:mfc100d.dll
 0002:000009a4       __imp_?OnLBSelChangedNotify@CFileDialog@@MAEXIII@Z 67db89a4     mfc100d:mfc100d.dll
 0002:000009a8       __imp_?OnInitDone@CFileDialog@@MAEXXZ 67db89a8     mfc100d:mfc100d.dll
 0002:000009ac       __imp_?OnFileNameChange@CFileDialog@@MAEXXZ 67db89ac     mfc100d:mfc100d.dll
 0002:000009b0       __imp_?OnFolderChange@CFileDialog@@MAEXXZ 67db89b0     mfc100d:mfc100d.dll
 0002:000009b4       __imp_?OnItemSelected@CFileDialog@@MAEXKK@Z 67db89b4     mfc100d:mfc100d.dll
 0002:000009b8       __imp_?OnButtonClicked@CFileDialog@@MAEXK@Z 67db89b8     mfc100d:mfc100d.dll
 0002:000009bc       __imp_?OnCheckButtonToggled@CFileDialog@@MAEXKH@Z 67db89bc     mfc100d:mfc100d.dll
 0002:000009c0       __imp_?OnControlActivating@CFileDialog@@MAEXK@Z 67db89c0     mfc100d:mfc100d.dll
 0002:000009c4       __imp_?AfxAssertValidObject@@YGXPBVCObject@@PBDH@Z 67db89c4     mfc100d:mfc100d.dll
 0002:000009c8       __imp_?GetFileTitle@CFileDialog@@QBE?AV?$CStringT@DV?$StrTraitMFC_DLL@DV?$ChTraitsCRT@D@ATL@@@@@ATL@@XZ 67db89c8     mfc100d:mfc100d.dll
 0002:000009cc       __imp_?GetForegroundWindow@CWnd@@SGPAV1@XZ 67db89cc     mfc100d:mfc100d.dll
 0002:000009d0       __imp_?GetThisMessageMap@CCommonDialog@@KGPBUAFX_MSGMAP@@XZ 67db89d0     mfc100d:mfc100d.dll
 0002:000009d4       __imp_?AfxGetModuleState@@YGPAVAFX_MODULE_STATE@@XZ 67db89d4     mfc100d:mfc100d.dll
 0002:000009d8       __imp_??3CObject@@SGXPAXPBDH@Z 67db89d8     mfc100d:mfc100d.dll
 0002:000009dc       __imp_??0CDynLinkLibrary@@QAE@AAUAFX_EXTENSION_MODULE@@H@Z 67db89dc     mfc100d:mfc100d.dll
 0002:000009e0       __imp_??2CObject@@SGPAXIPBDH@Z 67db89e0     mfc100d:mfc100d.dll
 0002:000009e4       __imp_?AfxTermExtensionModule@@YGXAAUAFX_EXTENSION_MODULE@@H@Z 67db89e4     mfc100d:mfc100d.dll
 0002:000009e8       __imp_?AfxInitExtensionModule@@YGHAAUAFX_EXTENSION_MODULE@@PAUHINSTANCE__@@@Z 67db89e8     mfc100d:mfc100d.dll
 0002:000009ec       __imp_?AdjustRect@CRectTracker@@UAEXHPAUtagRECT@@@Z 67db89ec     mfc100d:mfc100d.dll
 0002:000009f0       __imp_??1CSpinButtonCtrl@@UAE@XZ 67db89f0     mfc100d:mfc100d.dll
 0002:000009f4       __imp_?DDV_MinMaxFloat@@YGXPAVCDataExchange@@ABMMM@Z 67db89f4     mfc100d:mfc100d.dll
 0002:000009f8       __imp_?DDX_Text@@YGXPAVCDataExchange@@HAAK@Z 67db89f8     mfc100d:mfc100d.dll
 0002:000009fc       __imp_??0CSpinButtonCtrl@@QAE@XZ 67db89fc     mfc100d:mfc100d.dll
 0002:00000a00       __imp_??1CComboBox@@UAE@XZ 67db8a00     mfc100d:mfc100d.dll
 0002:00000a04       __imp_??1CEdit@@UAE@XZ     67db8a04     mfc100d:mfc100d.dll
 0002:00000a08       __imp_??1CListBox@@UAE@XZ  67db8a08     mfc100d:mfc100d.dll
 0002:00000a0c       __imp_??1?$CStringT@DV?$StrTraitMFC_DLL@DV?$ChTraitsCRT@D@ATL@@@@@ATL@@QAE@XZ 67db8a0c     mfc100d:mfc100d.dll
 0002:00000a10       __imp_??_V@YAXPAX@Z        67db8a10     mfc100d:mfc100d.dll
 0002:00000a14       __imp_??1CDialog@@UAE@XZ   67db8a14     mfc100d:mfc100d.dll
 0002:00000a18       __imp_??3CObject@@SGXPAX@Z 67db8a18     mfc100d:mfc100d.dll
 0002:00000a1c       __imp_?OnTimer@CWnd@@IAEXI@Z 67db8a1c     mfc100d:mfc100d.dll
 0002:00000a20       __imp_?KillTimer@CWnd@@QAEHI@Z 67db8a20     mfc100d:mfc100d.dll
 0002:00000a24       __imp_?OnInitDialog@CDialog@@UAEHXZ 67db8a24     mfc100d:mfc100d.dll
 0002:00000a28       __imp_?GetWindowRect@CWnd@@QBEXPAUtagRECT@@@Z 67db8a28     mfc100d:mfc100d.dll
 0002:00000a2c       __imp_?SetWindowPos@CWnd@@QAEHPBV1@HHHHI@Z 67db8a2c     mfc100d:mfc100d.dll
 0002:00000a30       __imp_?SetTimer@CWnd@@QAEIIIP6GXPAUHWND__@@IIK@Z@Z 67db8a30     mfc100d:mfc100d.dll
 0002:00000a34       __imp_?GetThisMessageMap@CDialog@@KGPBUAFX_MSGMAP@@XZ 67db8a34     mfc100d:mfc100d.dll
 0002:00000a38       __imp_?DoDataExchange@CWnd@@MAEXPAVCDataExchange@@@Z 67db8a38     mfc100d:mfc100d.dll
 0002:00000a3c       __imp_?PreInitDialog@CDialog@@MAEXXZ 67db8a3c     mfc100d:mfc100d.dll
 0002:00000a40       __imp_?OnCancel@CDialog@@MAEXXZ 67db8a40     mfc100d:mfc100d.dll
 0002:00000a44       __imp_?OnOK@CDialog@@MAEXXZ 67db8a44     mfc100d:mfc100d.dll
 0002:00000a48       __imp_?OnSetFont@CDialog@@UAEXPAVCFont@@@Z 67db8a48     mfc100d:mfc100d.dll
 0002:00000a4c       __imp_?DoModal@CDialog@@UAEHXZ 67db8a4c     mfc100d:mfc100d.dll
 0002:00000a50       __imp_?CreateIndirect@CDialog@@UAEHPBUDLGTEMPLATE@@PAVCWnd@@PAX@Z 67db8a50     mfc100d:mfc100d.dll
 0002:00000a54       __imp_?CreateIndirect@CDialog@@UAEHPAXPAVCWnd@@@Z 67db8a54     mfc100d:mfc100d.dll
 0002:00000a58       __imp_?Create@CDialog@@UAEHPBDPAVCWnd@@@Z 67db8a58     mfc100d:mfc100d.dll
 0002:00000a5c       __imp_?Create@CDialog@@UAEHIPAVCWnd@@@Z 67db8a5c     mfc100d:mfc100d.dll
 0002:00000a60       __imp_?GetOccDialogInfo@CDialog@@MAEPAU_AFX_OCC_DIALOG_INFO@@XZ 67db8a60     mfc100d:mfc100d.dll
 0002:00000a64       __imp_?SetOccDialogInfo@CDialog@@MAEHPAU_AFX_OCC_DIALOG_INFO@@@Z 67db8a64     mfc100d:mfc100d.dll
 0002:00000a68       __imp_?CreateControlSite@CWnd@@MAEHPAVCOleControlContainer@@PAPAVCOleControlSite@@IABU_GUID@@@Z 67db8a68     mfc100d:mfc100d.dll
 0002:00000a6c       __imp_?CreateControlContainer@CWnd@@MAEHPAPAVCOleControlContainer@@@Z 67db8a6c     mfc100d:mfc100d.dll
 0002:00000a70       __imp_?IsFrameWnd@CWnd@@UBEHXZ 67db8a70     mfc100d:mfc100d.dll
 0002:00000a74       __imp_?CheckAutoCenter@CDialog@@UAEHXZ 67db8a74     mfc100d:mfc100d.dll
 0002:00000a78       __imp_?OnGesturePressAndTap@CWnd@@MAEHVCPoint@@J@Z 67db8a78     mfc100d:mfc100d.dll
 0002:00000a7c       __imp_?OnGestureTwoFingerTap@CWnd@@MAEHVCPoint@@@Z 67db8a7c     mfc100d:mfc100d.dll
 0002:00000a80       __imp_?OnGestureRotate@CWnd@@MAEHVCPoint@@N@Z 67db8a80     mfc100d:mfc100d.dll
 0002:00000a84       __imp_?OnGesturePan@CWnd@@MAEHVCPoint@@0@Z 67db8a84     mfc100d:mfc100d.dll
 0002:00000a88       __imp_?OnGestureZoom@CWnd@@MAEHVCPoint@@J@Z 67db8a88     mfc100d:mfc100d.dll
 0002:00000a8c       __imp_?GetGestureStatus@CWnd@@MAEKVCPoint@@@Z 67db8a8c     mfc100d:mfc100d.dll
 0002:00000a90       __imp_?OnTouchInput@CWnd@@MAEHVCPoint@@HHPAUtagTOUCHINPUT@@@Z 67db8a90     mfc100d:mfc100d.dll
 0002:00000a94       __imp_?OnTouchInputs@CWnd@@MAEHIPAUtagTOUCHINPUT@@@Z 67db8a94     mfc100d:mfc100d.dll
 0002:00000a98       __imp_?OnChildNotify@CWnd@@MAEHIIJPAJ@Z 67db8a98     mfc100d:mfc100d.dll
 0002:00000a9c       __imp_?PostNcDestroy@CWnd@@MAEXXZ 67db8a9c     mfc100d:mfc100d.dll
 0002:00000aa0       __imp_?DefWindowProcA@CWnd@@MAEJIIJ@Z 67db8aa0     mfc100d:mfc100d.dll
 0002:00000aa4       __imp_?OnWndMsg@CWnd@@MAEHIIJPAJ@Z 67db8aa4     mfc100d:mfc100d.dll
 0002:00000aa8       __imp_?WindowProc@CWnd@@MAEJIIJ@Z 67db8aa8     mfc100d:mfc100d.dll
 0002:00000aac       __imp_?OnAmbientProperty@CWnd@@UAEHPAVCOleControlSite@@JPAUtagVARIANT@@@Z 67db8aac     mfc100d:mfc100d.dll
 0002:00000ab0       __imp_?PreTranslateMessage@CDialog@@UAEHPAUtagMSG@@@Z 67db8ab0     mfc100d:mfc100d.dll
 0002:00000ab4       __imp_?EndModalState@CWnd@@UAEXXZ 67db8ab4     mfc100d:mfc100d.dll
 0002:00000ab8       __imp_?BeginModalState@CWnd@@UAEXXZ 67db8ab8     mfc100d:mfc100d.dll
 0002:00000abc       __imp_?GetSuperWndProcAddr@CWnd@@MAEPAP6GJPAUHWND__@@IIJ@ZXZ 67db8abc     mfc100d:mfc100d.dll
 0002:00000ac0       __imp_?OnNotify@CWnd@@MAEHIJPAJ@Z 67db8ac0     mfc100d:mfc100d.dll
 0002:00000ac4       __imp_?OnCommand@CWnd@@MAEHIJ@Z 67db8ac4     mfc100d:mfc100d.dll
 0002:00000ac8       __imp_?CreateAccessibleProxy@CWnd@@UAEJIJPAJ@Z 67db8ac8     mfc100d:mfc100d.dll
 0002:00000acc       __imp_?SetProxy@CWnd@@UAEJPAUIAccessibleProxy@@@Z 67db8acc     mfc100d:mfc100d.dll
 0002:00000ad0       __imp_?put_accValue@CWnd@@UAEJUtagVARIANT@@PA_W@Z 67db8ad0     mfc100d:mfc100d.dll
 0002:00000ad4       __imp_?put_accName@CWnd@@UAEJUtagVARIANT@@PA_W@Z 67db8ad4     mfc100d:mfc100d.dll
 0002:00000ad8       __imp_?accDoDefaultAction@CWnd@@UAEJUtagVARIANT@@@Z 67db8ad8     mfc100d:mfc100d.dll
 0002:00000adc       __imp_?accHitTest@CWnd@@UAEJJJPAUtagVARIANT@@@Z 67db8adc     mfc100d:mfc100d.dll
 0002:00000ae0       __imp_?accNavigate@CWnd@@UAEJJUtagVARIANT@@PAU2@@Z 67db8ae0     mfc100d:mfc100d.dll
 0002:00000ae4       __imp_?accLocation@CWnd@@UAEJPAJ000UtagVARIANT@@@Z 67db8ae4     mfc100d:mfc100d.dll
 0002:00000ae8       __imp_?accSelect@CWnd@@UAEJJUtagVARIANT@@@Z 67db8ae8     mfc100d:mfc100d.dll
 0002:00000aec       __imp_?get_accDefaultAction@CWnd@@UAEJUtagVARIANT@@PAPA_W@Z 67db8aec     mfc100d:mfc100d.dll
 0002:00000af0       __imp_?get_accSelection@CWnd@@UAEJPAUtagVARIANT@@@Z 67db8af0     mfc100d:mfc100d.dll
 0002:00000af4       __imp_?get_accFocus@CWnd@@UAEJPAUtagVARIANT@@@Z 67db8af4     mfc100d:mfc100d.dll
 0002:00000af8       __imp_?get_accKeyboardShortcut@CWnd@@UAEJUtagVARIANT@@PAPA_W@Z 67db8af8     mfc100d:mfc100d.dll
 0002:00000afc       __imp_?get_accHelpTopic@CWnd@@UAEJPAPA_WUtagVARIANT@@PAJ@Z 67db8afc     mfc100d:mfc100d.dll
 0002:00000b00       __imp_?get_accHelp@CWnd@@UAEJUtagVARIANT@@PAPA_W@Z 67db8b00     mfc100d:mfc100d.dll
 0002:00000b04       __imp_?get_accState@CWnd@@UAEJUtagVARIANT@@PAU2@@Z 67db8b04     mfc100d:mfc100d.dll
 0002:00000b08       __imp_?get_accRole@CWnd@@UAEJUtagVARIANT@@PAU2@@Z 67db8b08     mfc100d:mfc100d.dll
 0002:00000b0c       __imp_?get_accDescription@CWnd@@UAEJUtagVARIANT@@PAPA_W@Z 67db8b0c     mfc100d:mfc100d.dll
 0002:00000b10       __imp_?get_accValue@CWnd@@UAEJUtagVARIANT@@PAPA_W@Z 67db8b10     mfc100d:mfc100d.dll
 0002:00000b14       __imp_?get_accName@CWnd@@UAEJUtagVARIANT@@PAPA_W@Z 67db8b14     mfc100d:mfc100d.dll
 0002:00000b18       __imp_?SetDlgItemTextA@CWnd@@QAEXHPBD@Z 67db8b18     mfc100d:mfc100d.dll
 0002:00000b1c       __imp_?IsEmpty@?$CSimpleStringT@D$00@ATL@@QBE_NXZ 67db8b1c     mfc100d:mfc100d.dll
 0002:00000b20       __imp_?DDX_Control@@YGXPAVCDataExchange@@HAAVCWnd@@@Z 67db8b20     mfc100d:mfc100d.dll
 0002:00000b24       __imp_?DDX_CBString@@YGXPAVCDataExchange@@HAAV?$CStringT@DV?$StrTraitMFC_DLL@DV?$ChTraitsCRT@D@ATL@@@@@ATL@@@Z 67db8b24     mfc100d:mfc100d.dll
 0002:00000b28       __imp_?DDX_CBIndex@@YGXPAVCDataExchange@@HAAH@Z 67db8b28     mfc100d:mfc100d.dll
 0002:00000b2c       __imp_?DDX_Check@@YGXPAVCDataExchange@@HAAH@Z 67db8b2c     mfc100d:mfc100d.dll
 0002:00000b30       __imp_?get_accChild@CWnd@@UAEJUtagVARIANT@@PAPAUIDispatch@@@Z 67db8b30     mfc100d:mfc100d.dll
 0002:00000b34       __imp_?get_accParent@CWnd@@UAEJPAPAUIDispatch@@@Z 67db8b34     mfc100d:mfc100d.dll
 0002:00000b38       __imp_?EnsureStdObj@CWnd@@UAEJXZ 67db8b38     mfc100d:mfc100d.dll
 0002:00000b3c       __imp_?OnDrawIconicThumbnailOrLivePreview@CWnd@@UAEXAAVCDC@@VCRect@@VCSize@@HAAH@Z 67db8b3c     mfc100d:mfc100d.dll
 0002:00000b40       __imp_??2@YAPAXI@Z         67db8b40     mfc100d:mfc100d.dll
 0002:00000b44       __imp_?ContinueModal@CWnd@@UAEHXZ 67db8b44     mfc100d:mfc100d.dll
 0002:00000b48       __imp_?WinHelpInternal@CWnd@@UAEXKI@Z 67db8b48     mfc100d:mfc100d.dll
 0002:00000b4c       __imp_?HtmlHelpA@CWnd@@UAEXKI@Z 67db8b4c     mfc100d:mfc100d.dll
 0002:00000b50       __imp_?WinHelpA@CWnd@@UAEXKI@Z 67db8b50     mfc100d:mfc100d.dll
 0002:00000b54       __imp_?GetScrollBarCtrl@CWnd@@UBEPAVCScrollBar@@H@Z 67db8b54     mfc100d:mfc100d.dll
 0002:00000b58       __imp_?OnToolHitTest@CWnd@@UBEHVCPoint@@PAUtagTOOLINFOA@@@Z 67db8b58     mfc100d:mfc100d.dll
 0002:00000b5c       __imp_?SetMenu@CWnd@@UAEHPAVCMenu@@@Z 67db8b5c     mfc100d:mfc100d.dll
 0002:00000b60       __imp_?GetMenu@CWnd@@UBEPAVCMenu@@XZ 67db8b60     mfc100d:mfc100d.dll
 0002:00000b64       __imp_?CalcWindowRect@CWnd@@UAEXPAUtagRECT@@I@Z 67db8b64     mfc100d:mfc100d.dll
 0002:00000b68       __imp_?PreCreateWindow@CWnd@@UAEHAAUtagCREATESTRUCTA@@@Z 67db8b68     mfc100d:mfc100d.dll
 0002:00000b6c       __imp_?DestroyWindow@CWnd@@UAEHXZ 67db8b6c     mfc100d:mfc100d.dll
 0002:00000b70       __imp_?CreateEx@CWnd@@UAEHKPBD0KHHHHPAUHWND__@@PAUHMENU__@@PAX@Z 67db8b70     mfc100d:mfc100d.dll
 0002:00000b74       __imp_?CreateEx@CWnd@@UAEHKPBD0KABUtagRECT@@PAV1@IPAX@Z 67db8b74     mfc100d:mfc100d.dll
 0002:00000b78       __imp_?Create@CWnd@@UAEHPBD0KABUtagRECT@@PAV1@IPAUCCreateContext@@@Z 67db8b78     mfc100d:mfc100d.dll
 0002:00000b7c       __imp_?PreSubclassWindow@CWnd@@UAEXXZ 67db8b7c     mfc100d:mfc100d.dll
 0002:00000b80       __imp_?GetConnectionHook@CCmdTarget@@MAEPAUIConnectionPoint@@ABU_GUID@@@Z 67db8b80     mfc100d:mfc100d.dll
 0002:00000b84       __imp_?GetExtraConnectionPoints@CCmdTarget@@MAEHPAVCPtrArray@@@Z 67db8b84     mfc100d:mfc100d.dll
 0002:00000b88       __imp_?GetInterfaceHook@CCmdTarget@@UAEPAUIUnknown@@PBX@Z 67db8b88     mfc100d:mfc100d.dll
 0002:00000b8c       __imp_?OnCreateAggregates@CCmdTarget@@UAEHXZ 67db8b8c     mfc100d:mfc100d.dll
 0002:00000b90       __imp_?GetEventSinkMap@CCmdTarget@@MBEPBUAFX_EVENTSINKMAP@@XZ 67db8b90     mfc100d:mfc100d.dll
 0002:00000b94       __imp_?GetInterfaceMap@CWnd@@MBEPBUAFX_INTERFACEMAP@@XZ 67db8b94     mfc100d:mfc100d.dll
 0002:00000b98       __imp_?GetConnectionMap@CCmdTarget@@MBEPBUAFX_CONNECTIONMAP@@XZ 67db8b98     mfc100d:mfc100d.dll
 0002:00000b9c       __imp_?GetDispatchMap@CCmdTarget@@MBEPBUAFX_DISPMAP@@XZ 67db8b9c     mfc100d:mfc100d.dll
 0002:00000ba0       __imp_?GetCommandMap@CCmdTarget@@MBEPBUAFX_OLECMDMAP@@XZ 67db8ba0     mfc100d:mfc100d.dll
 0002:00000ba4       __imp_?GetTypeLib@CCmdTarget@@UAEJKPAPAUITypeLib@@@Z 67db8ba4     mfc100d:mfc100d.dll
 0002:00000ba8       __imp_?GetTypeLibCache@CCmdTarget@@UAEPAVCTypeLibCache@@XZ 67db8ba8     mfc100d:mfc100d.dll
 0002:00000bac       __imp_?GetTypeInfoCount@CCmdTarget@@UAEIXZ 67db8bac     mfc100d:mfc100d.dll
 0002:00000bb0       __imp_?GetDispatchIID@CCmdTarget@@UAEHPAU_GUID@@@Z 67db8bb0     mfc100d:mfc100d.dll
 0002:00000bb4       __imp_?IsInvokeAllowed@CCmdTarget@@UAEHJ@Z 67db8bb4     mfc100d:mfc100d.dll
 0002:00000bb8       __imp_?OnFinalRelease@CWnd@@UAEXXZ 67db8bb8     mfc100d:mfc100d.dll
 0002:00000bbc       __imp_?OnCmdMsg@CDialog@@UAEHIHPAXPAUAFX_CMDHANDLERINFO@@@Z 67db8bbc     mfc100d:mfc100d.dll
 0002:00000bc0       __imp_?Dump@CDialog@@UBEXAAVCDumpContext@@@Z 67db8bc0     mfc100d:mfc100d.dll
 0002:00000bc4       __imp_?AssertValid@CDialog@@UBEXXZ 67db8bc4     mfc100d:mfc100d.dll
 0002:00000bc8       __imp_?Serialize@CObject@@UAEXAAVCArchive@@@Z 67db8bc8     mfc100d:mfc100d.dll
 0002:00000bcc       __imp_?GetRuntimeClass@CDialog@@UBEPAUCRuntimeClass@@XZ 67db8bcc     mfc100d:mfc100d.dll
 0002:00000bd0       __imp_??0?$CStringT@DV?$StrTraitMFC_DLL@DV?$ChTraitsCRT@D@ATL@@@@@ATL@@QAE@ABV01@@Z 67db8bd0     mfc100d:mfc100d.dll
 0002:00000bd4       __imp_??B?$CSimpleStringT@D$00@ATL@@QBEPBDXZ 67db8bd4     mfc100d:mfc100d.dll
 0002:00000bd8       __imp_??4?$CStringT@DV?$StrTraitMFC_DLL@DV?$ChTraitsCRT@D@ATL@@@@@ATL@@QAEAAV01@PBD@Z 67db8bd8     mfc100d:mfc100d.dll
 0002:00000bdc       __imp_??0?$CStringT@DV?$StrTraitMFC_DLL@DV?$ChTraitsCRT@D@ATL@@@@@ATL@@QAE@PBD@Z 67db8bdc     mfc100d:mfc100d.dll
 0002:00000be0       __imp_??4?$CStringT@DV?$StrTraitMFC_DLL@DV?$ChTraitsCRT@D@ATL@@@@@ATL@@QAEAAV01@ABV01@@Z 67db8be0     mfc100d:mfc100d.dll
 0002:00000be4       __imp_??0CComboBox@@QAE@XZ 67db8be4     mfc100d:mfc100d.dll
 0002:00000be8       __imp_??0CEdit@@QAE@XZ     67db8be8     mfc100d:mfc100d.dll
 0002:00000bec       __imp_??0CListBox@@QAE@XZ  67db8bec     mfc100d:mfc100d.dll
 0002:00000bf0       __imp_??0?$CStringT@DV?$StrTraitMFC_DLL@DV?$ChTraitsCRT@D@ATL@@@@@ATL@@QAE@XZ 67db8bf0     mfc100d:mfc100d.dll
 0002:00000bf4       __imp_?UpdateOFNFromShellDialog@CFileDialog@@UAEXXZ 67db8bf4     mfc100d:mfc100d.dll
 0002:00000bf8       __imp_?AfxGetApp@@YGPAVCWinApp@@XZ 67db8bf8     mfc100d:mfc100d.dll
 0002:00000bfc       __imp_??0CDialog@@QAE@IPAVCWnd@@@Z 67db8bfc     mfc100d:mfc100d.dll
 0002:00000c00       __imp_??3@YAXPAX@Z         67db8c00     mfc100d:mfc100d.dll
 0002:00000c04       __imp_?get_accChildCount@CWnd@@UAEJPAJ@Z 67db8c04     mfc100d:mfc100d.dll
 0002:00000c08       __imp_?EndModalLoop@CWnd@@UAEXH@Z 67db8c08     mfc100d:mfc100d.dll
 0002:00000c0c       \177mfc100d_NULL_THUNK_DATA 67db8c0c     mfc100d:mfc100d.dll
 0002:00000c10       ___xc_a                    67db8c10     msvcrtd:cinitexe.obj
 0002:00000c9c       ___xc_z                    67db8c9c     msvcrtd:cinitexe.obj
 0002:00000ca0       ___xi_a                    67db8ca0     msvcrtd:cinitexe.obj
 0002:00000cac       ___xi_z                    67db8cac     msvcrtd:cinitexe.obj
 0002:00000cd4       ??_7CAbortDlg@@6B@         67db8cd4     AbortDlg.obj
 0002:00001190       ??_7CAcqConfigDlg@@6BSapManager@@@ 67db9190     AcqConfigDlg.obj
 0002:0000119c       ??_7CAcqConfigDlg@@6BCDialog@@@ 67db919c     AcqConfigDlg.obj
 0002:000013d4       ??_7CAcqDlg@@6BSapManager@@@ 67db93d4     AcqDlg.obj
 0002:000013dc       ??_7CAcqDlg@@6BCDialog@@@  67db93dc     AcqDlg.obj
 0002:00001664       ??_7CAScanDlg@@6BSapManager@@@ 67db9664     AScanDlg.obj
 0002:0000166c       ??_7CAScanDlg@@6BCDialog@@@ 67db966c     AScanDlg.obj
 0002:0000197c       ??_7CAviFileDlg@@6B@       67db997c     AviFileDlg.obj
 0002:00001c14       __real@3f800000            67db9c14     BayerDlg.obj
 0002:00001c1c       ??_7CBayerOptionsDlg@@6BSapManager@@@ 67db9c1c     BayerDlg.obj
 0002:00001c24       ??_7CBayerOptionsDlg@@6BCDialog@@@ 67db9c24     BayerDlg.obj
 0002:0000207c       ??_7CBufDlg@@6B@           67dba07c     BufDlg.obj
 0002:000022bc       ??_SSapCab@@6B@            67dba2bc     CabDlg.obj
 0002:00002338       ??_7CCabDlg@@6BSapManager@@@ 67dba338     CabDlg.obj
 0002:00002344       ??_7CCabDlg@@6BCDialog@@@  67dba344     CabDlg.obj
 0002:000028ec       ??_7CCamVicDlg@@6BSapManager@@@ 67dba8ec     CamVicDlg.obj
 0002:000028f4       ??_7CCamVicDlg@@6BCDialog@@@ 67dba8f4     CamVicDlg.obj
 0002:00002cac       ??_7CColorConversionOptionsDlg@@6BSapManager@@@ 67dbacac     ColorConversionDlg.obj
 0002:00002cb4       ??_7CColorConversionOptionsDlg@@6BCDialog@@@ 67dbacb4     ColorConversionDlg.obj
 0002:00002fc0       ??_7CCompDlg@@6BSapManager@@@ 67dbafc0     CompDlg.obj
 0002:00002fcc       ??_7CCompDlg@@6BCDialog@@@ 67dbafcc     CompDlg.obj
 0002:00003f14       ??_7CFlatFieldDlg@@6BSapManager@@@ 67dbbf14     FlatFieldDlg.obj
 0002:00003f1c       ??_7CFlatFieldDlg@@6BCDialog@@@ 67dbbf1c     FlatFieldDlg.obj
 0002:00004178       __real@4000000000000000    67dbc178     FlatFieldDlg.obj
 0002:00004184       ??_SSapBuffer@@6B@         67dbc184     FlatFieldDlg.obj
 0002:00004390       __real@3ff0000000000000    67dbc390     FlatFieldDlg.obj
 0002:000044e4       ??_7CGioBidirectionalDlg@@6B@ 67dbc4e4     GioBidirectionalDlg.obj
 0002:00004b2c       ??_7CGioInputDlg@@6B@      67dbcb2c     GioInputDlg.obj
 0002:00004f04       ??_7CGioOutputDlg@@6B@     67dbcf04     GioOutputDlg.obj
 0002:000053e8       ??_7CImageWnd@@6B@         67dbd3e8     ImageWnd.obj
 0002:000053f0       ??_7CSapRectTracker@@6B@   67dbd3f0     ImageWnd.obj
 0002:00005408       __real@3fe0000000000000    67dbd408     ImageWnd.obj
 0002:00005410       ?_interfaceEntries@CJpegFileDlg@@0QBUAFX_INTERFACEMAP_ENTRY@@B 67dbd410     JpegFileDlg.obj
 0002:00005420       ?_dispatchEntries@CJpegFileDlg@@0QBUAFX_DISPMAP_ENTRY@@B 67dbd420     JpegFileDlg.obj
 0002:00005480       ?dispatchMap@CJpegFileDlg@@1UAFX_DISPMAP@@B 67dbd480     JpegFileDlg.obj
 0002:00005490       ?interfaceMap@CJpegFileDlg@@1UAFX_INTERFACEMAP@@B 67dbd490     JpegFileDlg.obj
 0002:0000549c       ??_7CJpegFileDlg@@6B@      67dbd49c     JpegFileDlg.obj
 0002:00005a3c       ?classCLoadSaveDlg@CLoadSaveDlg@@2UCRuntimeClass@@B 67dbda3c     LoadSaveDlg.obj
 0002:00005a5c       ??_7CLoadSaveDlg@@6B@      67dbda5c     LoadSaveDlg.obj
 0002:00005c98       ??_7CLScanDlg@@6BSapManager@@@ 67dbdc98     LScanDlg.obj
 0002:00005ca4       ??_7CLScanDlg@@6BCDialog@@@ 67dbdca4     LScanDlg.obj
 0002:00005f04       ??_7CPixProAbsSubDlg@@6B@  67dbdf04     PixProAbsSubDlg.obj
 0002:0000622c       ??_7CPixProDlg@@6B@        67dbe22c     PixProDlg.obj
 0002:00006444       ??_7CPixProIntScaleDlg@@6B@ 67dbe444     PixProIntScaleDlg.obj
 0002:00006644       ??_7CPixProRefImageDlg@@6B@ 67dbe644     PixProRefImageDlg.obj
 0002:0000682c       ??_7CPixProUflowSubDlg@@6B@ 67dbe82c     PixProUflowSubDlg.obj
 0002:00006a44       ??_7CPixProWAvgDlg@@6B@    67dbea44     PixProWAvgDlg.obj
 0002:00006e6c       ??_7CRawFileDlg@@6B@       67dbee6c     RawFileDlg.obj
 0002:000074ec       __pRawDllMain              67dbf4ec     SapClassGui.obj
 0002:000081d4       ?_Min@?$AtlLimits@H@ATL@@2HB 67dc01d4     SapClassGui.obj
 0002:000081d8       ?_Max@?$AtlLimits@H@ATL@@2HB 67dc01d8     SapClassGui.obj
 0002:000081dc       ?_Min@?$AtlLimits@I@ATL@@2IB 67dc01dc     SapClassGui.obj
 0002:000081e0       ?_Max@?$AtlLimits@I@ATL@@2IB 67dc01e0     SapClassGui.obj
 0002:000081e4       ?_Min@?$AtlLimits@J@ATL@@2JB 67dc01e4     SapClassGui.obj
 0002:000081e8       ?_Max@?$AtlLimits@J@ATL@@2JB 67dc01e8     SapClassGui.obj
 0002:000081ec       ?_Min@?$AtlLimits@K@ATL@@2KB 67dc01ec     SapClassGui.obj
 0002:000081f0       ?_Max@?$AtlLimits@K@ATL@@2KB 67dc01f0     SapClassGui.obj
 0002:000081f8       ?_Min@?$AtlLimits@_J@ATL@@2_JB 67dc01f8     SapClassGui.obj
 0002:00008200       ?_Max@?$AtlLimits@_J@ATL@@2_JB 67dc0200     SapClassGui.obj
 0002:00008208       ?_Min@?$AtlLimits@_K@ATL@@2_KB 67dc0208     SapClassGui.obj
 0002:00008210       ?_Max@?$AtlLimits@_K@ATL@@2_KB 67dc0210     SapClassGui.obj
 0002:00008218       ?VT@?$_CVarTypeInfo@D@ATL@@2GB 67dc0218     SapClassGui.obj
 0002:0000821c       ?pmField@?$_CVarTypeInfo@D@ATL@@2QQtagVARIANT@@DQ3@ 67dc021c     SapClassGui.obj
 0002:00008220       ?VT@?$_CVarTypeInfo@E@ATL@@2GB 67dc0220     SapClassGui.obj
 0002:00008224       ?pmField@?$_CVarTypeInfo@E@ATL@@2QQtagVARIANT@@EQ3@ 67dc0224     SapClassGui.obj
 0002:00008228       ?VT@?$_CVarTypeInfo@PAD@ATL@@2GB 67dc0228     SapClassGui.obj
 0002:0000822c       ?pmField@?$_CVarTypeInfo@PAD@ATL@@2QQtagVARIANT@@PADQ3@ 67dc022c     SapClassGui.obj
 0002:00008230       ?VT@?$_CVarTypeInfo@PAE@ATL@@2GB 67dc0230     SapClassGui.obj
 0002:00008234       ?pmField@?$_CVarTypeInfo@PAE@ATL@@2QQtagVARIANT@@PAEQ3@ 67dc0234     SapClassGui.obj
 0002:00008238       ?VT@?$_CVarTypeInfo@F@ATL@@2GB 67dc0238     SapClassGui.obj
 0002:0000823c       ?pmField@?$_CVarTypeInfo@F@ATL@@2QQtagVARIANT@@FQ3@ 67dc023c     SapClassGui.obj
 0002:00008240       ?VT@?$_CVarTypeInfo@PAF@ATL@@2GB 67dc0240     SapClassGui.obj
 0002:00008244       ?pmField@?$_CVarTypeInfo@PAF@ATL@@2QQtagVARIANT@@PAFQ3@ 67dc0244     SapClassGui.obj
 0002:00008248       ?VT@?$_CVarTypeInfo@G@ATL@@2GB 67dc0248     SapClassGui.obj
 0002:0000824c       ?pmField@?$_CVarTypeInfo@G@ATL@@2QQtagVARIANT@@GQ3@ 67dc024c     SapClassGui.obj
 0002:00008250       ?VT@?$_CVarTypeInfo@PAG@ATL@@2GB 67dc0250     SapClassGui.obj
 0002:00008254       ?pmField@?$_CVarTypeInfo@PAG@ATL@@2QQtagVARIANT@@PAGQ3@ 67dc0254     SapClassGui.obj
 0002:00008258       ?VT@?$_CVarTypeInfo@H@ATL@@2GB 67dc0258     SapClassGui.obj
 0002:0000825c       ?pmField@?$_CVarTypeInfo@H@ATL@@2QQtagVARIANT@@HQ3@ 67dc025c     SapClassGui.obj
 0002:00008260       ?VT@?$_CVarTypeInfo@PAH@ATL@@2GB 67dc0260     SapClassGui.obj
 0002:00008264       ?pmField@?$_CVarTypeInfo@PAH@ATL@@2QQtagVARIANT@@PAHQ3@ 67dc0264     SapClassGui.obj
 0002:00008268       ?VT@?$_CVarTypeInfo@I@ATL@@2GB 67dc0268     SapClassGui.obj
 0002:0000826c       ?pmField@?$_CVarTypeInfo@I@ATL@@2QQtagVARIANT@@IQ3@ 67dc026c     SapClassGui.obj
 0002:00008270       ?VT@?$_CVarTypeInfo@PAI@ATL@@2GB 67dc0270     SapClassGui.obj
 0002:00008274       ?pmField@?$_CVarTypeInfo@PAI@ATL@@2QQtagVARIANT@@PAIQ3@ 67dc0274     SapClassGui.obj
 0002:00008278       ?VT@?$_CVarTypeInfo@J@ATL@@2GB 67dc0278     SapClassGui.obj
 0002:0000827c       ?pmField@?$_CVarTypeInfo@J@ATL@@2QQtagVARIANT@@JQ3@ 67dc027c     SapClassGui.obj
 0002:00008280       ?VT@?$_CVarTypeInfo@PAJ@ATL@@2GB 67dc0280     SapClassGui.obj
 0002:00008284       ?pmField@?$_CVarTypeInfo@PAJ@ATL@@2QQtagVARIANT@@PAJQ3@ 67dc0284     SapClassGui.obj
 0002:00008288       ?VT@?$_CVarTypeInfo@K@ATL@@2GB 67dc0288     SapClassGui.obj
 0002:0000828c       ?pmField@?$_CVarTypeInfo@K@ATL@@2QQtagVARIANT@@KQ3@ 67dc028c     SapClassGui.obj
 0002:00008290       ?VT@?$_CVarTypeInfo@PAK@ATL@@2GB 67dc0290     SapClassGui.obj
 0002:00008294       ?pmField@?$_CVarTypeInfo@PAK@ATL@@2QQtagVARIANT@@PAKQ3@ 67dc0294     SapClassGui.obj
 0002:00008298       ?VT@?$_CVarTypeInfo@_J@ATL@@2GB 67dc0298     SapClassGui.obj
 0002:0000829c       ?pmField@?$_CVarTypeInfo@_J@ATL@@2QQtagVARIANT@@_JQ3@ 67dc029c     SapClassGui.obj
 0002:000082a0       ?VT@?$_CVarTypeInfo@PA_J@ATL@@2GB 67dc02a0     SapClassGui.obj
 0002:000082a4       ?pmField@?$_CVarTypeInfo@PA_J@ATL@@2QQtagVARIANT@@PA_JQ3@ 67dc02a4     SapClassGui.obj
 0002:000082a8       ?VT@?$_CVarTypeInfo@_K@ATL@@2GB 67dc02a8     SapClassGui.obj
 0002:000082ac       ?pmField@?$_CVarTypeInfo@_K@ATL@@2QQtagVARIANT@@_KQ3@ 67dc02ac     SapClassGui.obj
 0002:000082b0       ?VT@?$_CVarTypeInfo@PA_K@ATL@@2GB 67dc02b0     SapClassGui.obj
 0002:000082b4       ?pmField@?$_CVarTypeInfo@PA_K@ATL@@2QQtagVARIANT@@PA_KQ3@ 67dc02b4     SapClassGui.obj
 0002:000082b8       ?VT@?$_CVarTypeInfo@M@ATL@@2GB 67dc02b8     SapClassGui.obj
 0002:000082bc       ?pmField@?$_CVarTypeInfo@M@ATL@@2QQtagVARIANT@@MQ3@ 67dc02bc     SapClassGui.obj
 0002:000082c0       ?VT@?$_CVarTypeInfo@PAM@ATL@@2GB 67dc02c0     SapClassGui.obj
 0002:000082c4       ?pmField@?$_CVarTypeInfo@PAM@ATL@@2QQtagVARIANT@@PAMQ3@ 67dc02c4     SapClassGui.obj
 0002:000082c8       ?VT@?$_CVarTypeInfo@N@ATL@@2GB 67dc02c8     SapClassGui.obj
 0002:000082cc       ?pmField@?$_CVarTypeInfo@N@ATL@@2QQtagVARIANT@@NQ3@ 67dc02cc     SapClassGui.obj
 0002:000082d0       ?VT@?$_CVarTypeInfo@PAN@ATL@@2GB 67dc02d0     SapClassGui.obj
 0002:000082d4       ?pmField@?$_CVarTypeInfo@PAN@ATL@@2QQtagVARIANT@@PANQ3@ 67dc02d4     SapClassGui.obj
 0002:000082d8       ?VT@?$_CVarTypeInfo@PAUtagVARIANT@@@ATL@@2GB 67dc02d8     SapClassGui.obj
 0002:000082dc       ?VT@?$_CVarTypeInfo@PA_W@ATL@@2GB 67dc02dc     SapClassGui.obj
 0002:000082e0       ?pmField@?$_CVarTypeInfo@PA_W@ATL@@2QQtagVARIANT@@PA_WQ3@ 67dc02e0     SapClassGui.obj
 0002:000082e4       ?VT@?$_CVarTypeInfo@PAPA_W@ATL@@2GB 67dc02e4     SapClassGui.obj
 0002:000082e8       ?pmField@?$_CVarTypeInfo@PAPA_W@ATL@@2QQtagVARIANT@@PAPA_WQ3@ 67dc02e8     SapClassGui.obj
 0002:000082ec       ?VT@?$_CVarTypeInfo@PAUIUnknown@@@ATL@@2GB 67dc02ec     SapClassGui.obj
 0002:000082f0       ?pmField@?$_CVarTypeInfo@PAUIUnknown@@@ATL@@2QQtagVARIANT@@PAUIUnknown@@Q3@ 67dc02f0     SapClassGui.obj
 0002:000082f4       ?VT@?$_CVarTypeInfo@PAPAUIUnknown@@@ATL@@2GB 67dc02f4     SapClassGui.obj
 0002:000082f8       ?pmField@?$_CVarTypeInfo@PAPAUIUnknown@@@ATL@@2QQtagVARIANT@@PAPAUIUnknown@@Q3@ 67dc02f8     SapClassGui.obj
 0002:000082fc       ?VT@?$_CVarTypeInfo@PAUIDispatch@@@ATL@@2GB 67dc02fc     SapClassGui.obj
 0002:00008300       ?pmField@?$_CVarTypeInfo@PAUIDispatch@@@ATL@@2QQtagVARIANT@@PAUIDispatch@@Q3@ 67dc0300     SapClassGui.obj
 0002:00008304       ?VT@?$_CVarTypeInfo@PAPAUIDispatch@@@ATL@@2GB 67dc0304     SapClassGui.obj
 0002:00008308       ?pmField@?$_CVarTypeInfo@PAPAUIDispatch@@@ATL@@2QQtagVARIANT@@PAPAUIDispatch@@Q3@ 67dc0308     SapClassGui.obj
 0002:0000830c       ?VT@?$_CVarTypeInfo@TtagCY@@@ATL@@2GB 67dc030c     SapClassGui.obj
 0002:00008310       ?pmField@?$_CVarTypeInfo@TtagCY@@@ATL@@2QQtagVARIANT@@TtagCY@@Q3@ 67dc0310     SapClassGui.obj
 0002:00008314       ?VT@?$_CVarTypeInfo@PATtagCY@@@ATL@@2GB 67dc0314     SapClassGui.obj
 0002:00008318       ?pmField@?$_CVarTypeInfo@PATtagCY@@@ATL@@2QQtagVARIANT@@PATtagCY@@Q3@ 67dc0318     SapClassGui.obj
 0002:0000831c       ?c_bIsMFCDLLTraits@?$_MFCDLLTraitsCheck@DV?$StrTraitMFC_DLL@DV?$ChTraitsCRT@D@ATL@@@@@_CSTRING_IMPL_@ATL@@2_NB 67dc031c     SapClassGui.obj
 0002:0000831d       ?c_bIsMFCDLLTraits@?$_MFCDLLTraitsCheck@_WV?$StrTraitMFC_DLL@_WV?$ChTraitsCRT@_W@ATL@@@@@_CSTRING_IMPL_@ATL@@2_NB 67dc031d     SapClassGui.obj
 0002:00008320       ?generic@CArchiveException@@2HB 67dc0320     SapClassGui.obj
 0002:00008324       ?generic@CFileException@@2HB 67dc0324     SapClassGui.obj
 0002:00008328       ?Millisecond@CFileTime@ATL@@2_KB 67dc0328     SapClassGui.obj
 0002:00008330       ?Second@CFileTime@ATL@@2_KB 67dc0330     SapClassGui.obj
 0002:00008338       ?Minute@CFileTime@ATL@@2_KB 67dc0338     SapClassGui.obj
 0002:00008340       ?Hour@CFileTime@ATL@@2_KB  67dc0340     SapClassGui.obj
 0002:00008348       ?Day@CFileTime@ATL@@2_KB   67dc0348     SapClassGui.obj
 0002:00008350       ?Week@CFileTime@ATL@@2_KB  67dc0350     SapClassGui.obj
 0002:00008358       ?szInvalidDateTime@ATL@@3QBDB 67dc0358     SapClassGui.obj
 0002:0000835c       ?szInvalidDateTimeSpan@ATL@@3QBDB 67dc035c     SapClassGui.obj
 0002:00008360       _LIBID_ATLLib              67dc0360     SapClassGui.obj
 0002:00008370       _CLSID_Registrar           67dc0370     SapClassGui.obj
 0002:00008380       _IID_IRegistrar            67dc0380     SapClassGui.obj
 0002:00008390       _IID_IAxWinHostWindow      67dc0390     SapClassGui.obj
 0002:000083a0       _IID_IAxWinAmbientDispatch 67dc03a0     SapClassGui.obj
 0002:000083b0       _IID_IInternalConnection   67dc03b0     SapClassGui.obj
 0002:000083c0       _IID_IDocHostUIHandlerDispatch 67dc03c0     SapClassGui.obj
 0002:000083d0       _IID_IAxWinHostWindowLic   67dc03d0     SapClassGui.obj
 0002:000083e0       _IID_IAxWinAmbientDispatchEx 67dc03e0     SapClassGui.obj
 0002:000083f0       ?MAX_VALUE@CRegParser@ATL@@1HB 67dc03f0     SapClassGui.obj
 0002:000083f4       ?MAX_TYPE@CRegParser@ATL@@1HB 67dc03f4     SapClassGui.obj
 0002:000083f8       ?rgszNeverDelete@CRegParser@ATL@@1QBQBDB 67dc03f8     SapClassGui.obj
 0002:00008428       ?cbNeverDelete@CRegParser@ATL@@1HB 67dc0428     SapClassGui.obj
 0002:0000842c       ?c_bIsMFCDLLTraits@?$_MFCDLLTraitsCheck@DV?$StrTraitATL@DV?$ChTraitsCRT@D@ATL@@@ATL@@@_CSTRING_IMPL_@ATL@@2_NB 67dc042c     SapClassGui.obj
 0002:0000842d       ?c_bIsMFCDLLTraits@?$_MFCDLLTraitsCheck@_WV?$StrTraitATL@_WV?$ChTraitsCRT@_W@ATL@@@ATL@@@_CSTRING_IMPL_@ATL@@2_NB 67dc042d     SapClassGui.obj
 0002:00008430       ?sc_redShift@ColorF@D2D1@@0IB 67dc0430     SapClassGui.obj
 0002:00008434       ?sc_greenShift@ColorF@D2D1@@0IB 67dc0434     SapClassGui.obj
 0002:00008438       ?sc_blueShift@ColorF@D2D1@@0IB 67dc0438     SapClassGui.obj
 0002:0000843c       ?sc_redMask@ColorF@D2D1@@0IB 67dc043c     SapClassGui.obj
 0002:00008440       ?sc_greenMask@ColorF@D2D1@@0IB 67dc0440     SapClassGui.obj
 0002:00008444       ?sc_blueMask@ColorF@D2D1@@0IB 67dc0444     SapClassGui.obj
 0002:00008448       ?CLSID_WinFormsControl@@3U_GUID@@B 67dc0448     SapClassGui.obj
 0002:0000845c       ??_7CRectTracker@@6B@      67dc045c     SapClassGui.obj
 0002:00008478       ??_7Thank_you@Define_the_symbol__ATL_MIXED@@6B@ 67dc0478     SapClassGui.obj
 0002:00008504       ??_7CTiffFileDlg@@6B@      67dc0504     TiffFileDlg.obj
 0002:00008718       __real@3a83126f            67dc0718     ViewDlg.obj
 0002:0000871c       __real@4cbebc20            67dc071c     ViewDlg.obj
 0002:00008878       __real@4059000000000000    67dc0878     ViewDlg.obj
 0002:00008880       __real@00000000            67dc0880     ViewDlg.obj
 0002:0000888c       ??_7CViewDlg@@6B@          67dc088c     ViewDlg.obj
 0002:00008a1c       __real@42c80000            67dc0a1c     ViewDlg.obj
 0002:00008a20       ??_C@_07KJLOKDKB@TypeLib?$AA@ 67dc0a20     mfcs100d:nolib.obj
 0002:00008a28       ??_C@_08KEKAJNJI@Software?$AA@ 67dc0a28     mfcs100d:nolib.obj
 0002:00008a34       ??_C@_06FDHFNJBJ@SYSTEM?$AA@ 67dc0a34     mfcs100d:nolib.obj
 0002:00008a3c       ??_C@_08LOPHEHKG@SECURITY?$AA@ 67dc0a3c     mfcs100d:nolib.obj
 0002:00008a48       ??_C@_03DDIMFGBA@SAM?$AA@  67dc0a48     mfcs100d:nolib.obj
 0002:00008a4c       ??_C@_04IHBFOLAC@Mime?$AA@ 67dc0a4c     mfcs100d:nolib.obj
 0002:00008a54       ??_C@_08PPIOJEA@Hardware?$AA@ 67dc0a54     mfcs100d:nolib.obj
 0002:00008a60       ??_C@_09JKPGEJCH@Interface?$AA@ 67dc0a60     mfcs100d:nolib.obj
 0002:00008a6c       ??_C@_08PICKODJL@FileType?$AA@ 67dc0a6c     mfcs100d:nolib.obj
 0002:00008a78       ??_C@_0BF@HDDNNDFH@Component?5Categories?$AA@ 67dc0a78     mfcs100d:nolib.obj
 0002:00008a90       ??_C@_05GIBEAPNE@CLSID?$AA@ 67dc0a90     mfcs100d:nolib.obj
 0002:00008a98       ??_C@_05PDIKPLII@AppID?$AA@ 67dc0a98     mfcs100d:nolib.obj
 0002:00008aa0       ??_C@_06JBKGCNBB@Delete?$AA@ 67dc0aa0     mfcs100d:nolib.obj
 0002:00008aa8       ??_C@_08KAAPDIAN@NoRemove?$AA@ 67dc0aa8     mfcs100d:nolib.obj
 0002:00008ab4       ??_C@_0M@DBGDLGLL@ForceRemove?$AA@ 67dc0ab4     mfcs100d:nolib.obj
 0002:00008ac0       ??_C@_03LAIAPFCB@Val?$AA@  67dc0ac0     mfcs100d:nolib.obj
 0002:00008ac4       ??_C@_01HMGJMAIH@B?$AA@    67dc0ac4     mfcs100d:nolib.obj
 0002:00008ac8       ??_C@_01CKDDGHAB@D?$AA@    67dc0ac8     mfcs100d:nolib.obj
 0002:00008acc       ??_C@_01PLPBNMEI@M?$AA@    67dc0acc     mfcs100d:nolib.obj
 0002:00008ad0       ??_C@_01CPLAODJH@S?$AA@    67dc0ad0     mfcs100d:nolib.obj
 0002:00008ad4       ??_C@_0BF@GPPHKJFN@Invalid?5DateTimeSpan?$AA@ 67dc0ad4     mfcs100d:nolib.obj
 0002:00008aec       ??_C@_0BB@KEKMKJPM@Invalid?5DateTime?$AA@ 67dc0aec     mfcs100d:nolib.obj
 0002:00008b44       ??_7type_info@@6B@         67dc0b44     msvcrtd:ti_inst.obj
 0002:00008b48       __pDefaultRawDllMain       67dc0b48     msvcrtd:crtdll.obj
 0002:00008b4c       ??_C@_0DA@FJPPCPEH@f?3?2dd?2vctools?2crt_bld?2self_x86?2c@ 67dc0b4c     msvcrtd:crtdll.obj
 0002:00008b7c       ??_C@_0BO@GNIAFIKK@Unknown?5Runtime?5Check?5Error?6?$AN?$AA@ 67dc0b7c     msvcrtd:_error_.obj
 0002:00008b9c       ??_C@_0CM@NGINOKPC@Stack?5memory?5around?5_alloca?5was?5@ 67dc0b9c     msvcrtd:_error_.obj
 0002:00008bc8       ??_C@_0DG@HKJMLLLP@A?5local?5variable?5was?5used?5before@ 67dc0bc8     msvcrtd:_error_.obj
 0002:00008c00       ??_C@_0BN@FFOINMNJ@Stack?5memory?5was?5corrupted?6?$AN?$AA@ 67dc0c00     msvcrtd:_error_.obj
 0002:00008c20       ??_C@_0BBN@GPMLNJCF@A?5cast?5to?5a?5smaller?5data?5type?5ha@ 67dc0c20     msvcrtd:_error_.obj
 0002:00008d40       ??_C@_0NN@NGPKDKPD@The?5value?5of?5ESP?5was?5not?5properl@ 67dc0d40     msvcrtd:_error_.obj
 0002:00008ebc       ??_C@_0CA@IODNCDPG@Run?9Time?5Check?5Failure?5?$CD?$CFd?5?9?5?$CFs?$AA@ 67dc0ebc     msvcrtd:_error_.obj
 0002:00008edc       ??_C@_0BE@GNBOBNCK@Unknown?5Module?5Name?$AA@ 67dc0edc     msvcrtd:_error_.obj
 0002:00008ef0       ??_C@_0BB@PFFGGCJP@Unknown?5Filename?$AA@ 67dc0ef0     msvcrtd:_error_.obj
 0002:00008f08       ??_C@_1EA@NFKNIFJP@?$AAR?$AAu?$AAn?$AA?9?$AAT?$AAi?$AAm?$AAe?$AA?5?$AAC?$AAh?$AAe?$AAc?$AAk?$AA?5?$AAF?$AAa?$AAi?$AAl?$AAu?$AAr?$AAe?$AA?5?$AA?$CD?$AA?$CF?$AAd?$AA?5?$AA?9?$AA?5?$AA?$CF?$AAs?$AA?$AA@ 67dc0f08     msvcrtd:_error_.obj
 0002:00008f48       ??_C@_1GM@OLMCBDMB@?$AAR?$AAu?$AAn?$AAt?$AAi?$AAm?$AAe?$AA?5?$AAC?$AAh?$AAe?$AAc?$AAk?$AA?5?$AAE?$AAr?$AAr?$AAo?$AAr?$AA?4?$AA?6?$AA?$AN?$AA?5?$AAU?$AAn?$AAa?$AAb?$AAl?$AAe?$AA?5?$AAt?$AAo@ 67dc0f48     msvcrtd:_error_.obj
 0002:00008fb4       ??_C@_0CG@IAFNJNEE@Stack?5corrupted?5near?5unknown?5var@ 67dc0fb4     msvcrtd:_error_.obj
 0002:00008fe0       ??_C@_0EJ@LJKNEOLN@Stack?5area?5around?5_alloca?5memory@ 67dc0fe0     msvcrtd:_error_.obj
 0002:0000902c       ??_C@_08KJEDNCKC@?$CFs?$CFs?$CFs?$CFs?$AA@ 67dc102c     msvcrtd:_error_.obj
 0002:00009038       ??_C@_02LLMPMKNF@?$DO?5?$AA@ 67dc1038     msvcrtd:_error_.obj
 0002:0000903c       ??_C@_01EEMJAFIK@?6?$AA@   67dc103c     msvcrtd:_error_.obj
 0002:00009040       ??_C@_0BC@KIBAILCI@?$CFs?$CFs?$CFp?$CFs?$CFld?$CFs?$CFd?$CFs?$AA@ 67dc1040     msvcrtd:_error_.obj
 0002:00009058       ??_C@_0EI@CLEPFNGI@Stack?5area?5around?5_alloca?5memory@ 67dc1058     msvcrtd:_error_.obj
 0002:000090a0       ??_C@_0N@MHFFIMFG@?6Address?3?50x?$AA@ 67dc10a0     msvcrtd:_error_.obj
 0002:000090b0       ??_C@_07DFDJCKFN@?6Size?3?5?$AA@ 67dc10b0     msvcrtd:_error_.obj
 0002:000090b8       ??_C@_0CK@DKGBICFE@?6Allocation?5number?5within?5this?5f@ 67dc10b8     msvcrtd:_error_.obj
 0002:000090e4       ??_C@_08OMAHNMHJ@?6Data?3?5?$DM?$AA@ 67dc10e4     msvcrtd:_error_.obj
 0002:000090f0       ??_C@_09FOPFMPEJ@wsprintfA?$AA@ 67dc10f0     msvcrtd:_error_.obj
 0002:000090fc       ??_C@_1BG@OILDLIOJ@?$AAu?$AAs?$AAe?$AAr?$AA3?$AA2?$AA?4?$AAd?$AAl?$AAl?$AA?$AA@ 67dc10fc     msvcrtd:_error_.obj
 0002:00009114       ??_C@_05MKKEDADM@?$CF?42X?5?$AA@ 67dc1114     msvcrtd:_error_.obj
 0002:0000911c       ??_C@_0DE@OHJBPMBP@A?5variable?5is?5being?5used?5without@ 67dc111c     msvcrtd:_error_.obj
 0002:00009150       ??_C@_0BP@OGBCLIBO@Stack?5around?5_alloca?5corrupted?$AA@ 67dc1150     msvcrtd:_userapi_.obj
 0002:00009170       ??_C@_0CK@CNLNOEPB@Local?5variable?5used?5before?5initi@ 67dc1170     msvcrtd:_userapi_.obj
 0002:0000919c       ??_C@_0BI@CIGMDCBH@Stack?5memory?5corruption?$AA@ 67dc119c     msvcrtd:_userapi_.obj
 0002:000091b4       ??_C@_0CK@FEGOIOPB@Cast?5to?5smaller?5type?5causing?5los@ 67dc11b4     msvcrtd:_userapi_.obj
 0002:000091e0       ??_C@_0BJ@HEGAHDFO@Stack?5pointer?5corruption?$AA@ 67dc11e0     msvcrtd:_userapi_.obj
 0002:00009218       ?ProcessDetach@NativeDll@<CrtImplementationDetails>@@0IB 67dc1218     msvcrtd:tncleanup.obj
 0002:0000921c       ?ProcessAttach@NativeDll@<CrtImplementationDetails>@@0IB 67dc121c     msvcrtd:tncleanup.obj
 0002:00009220       ?ThreadAttach@NativeDll@<CrtImplementationDetails>@@0IB 67dc1220     msvcrtd:tncleanup.obj
 0002:00009224       ?ThreadDetach@NativeDll@<CrtImplementationDetails>@@0IB 67dc1224     msvcrtd:tncleanup.obj
 0002:00009228       ?ProcessVerifier@NativeDll@<CrtImplementationDetails>@@0IB 67dc1228     msvcrtd:tncleanup.obj
 0002:00009264       ??_C@_01KDCPPGHE@r?$AA@    67dc1264     msvcrtd:_pdblkup_.obj
 0002:00009268       ??_C@_0BB@KCIACLNC@PDBOpenValidate5?$AA@ 67dc1268     msvcrtd:_pdblkup_.obj
 0002:0000927c       ??_C@_1CK@HHHCOJPD@?$AAE?$AAn?$AAv?$AAi?$AAr?$AAo?$AAn?$AAm?$AAe?$AAn?$AAt?$AAD?$AAi?$AAr?$AAe?$AAc?$AAt?$AAo?$AAr?$AAy?$AA?$AA@ 67dc127c     msvcrtd:_pdblkup_.obj
 0002:000092a8       ??_C@_1FM@DNCABAP@?$AAS?$AAO?$AAF?$AAT?$AAW?$AAA?$AAR?$AAE?$AA?2?$AAM?$AAi?$AAc?$AAr?$AAo?$AAs?$AAo?$AAf?$AAt?$AA?2?$AAV?$AAi?$AAs?$AAu?$AAa?$AAl?$AAS?$AAt?$AAu?$AAd?$AAi?$AAo?$AA?2@ 67dc12a8     msvcrtd:_pdblkup_.obj
 0002:00009304       ??_C@_0M@HLOHPNFA@RegCloseKey?$AA@ 67dc1304     msvcrtd:_pdblkup_.obj
 0002:00009310       ??_C@_0BB@GLNAEDBD@RegQueryValueExW?$AA@ 67dc1310     msvcrtd:_pdblkup_.obj
 0002:00009324       ??_C@_0O@COHOBMLB@RegOpenKeyExW?$AA@ 67dc1324     msvcrtd:_pdblkup_.obj
 0002:00009334       ??_C@_1BK@GAEMIDIL@?$AAA?$AAD?$AAV?$AAA?$AAP?$AAI?$AA3?$AA2?$AA?4?$AAD?$AAL?$AAL?$AA?$AA@ 67dc1334     msvcrtd:_pdblkup_.obj
 0002:0000936c       ??_C@_06JMICFIKN@?$CFs_?$CF0x?$AA@ 67dc136c     atlsd:Externs.obj
 0002:00009374       ??_C@_0CM@OGPEFHLG@AtlDebugAllocator_FileMappingNam@ 67dc1374     atlsd:Externs.obj
 0002:000093a0       ??_C@_0CN@PLNFEEEE@AtlTraceModuleManager_ProcessAdd@ 67dc13a0     atlsd:Externs.obj
 0002:000093d0       ??_C@_1GM@OMLOBEGL@?$AAf?$AA?3?$AA?2?$AAd?$AAd?$AA?2?$AAv?$AAc?$AAt?$AAo?$AAo?$AAl?$AAs?$AA?2?$AAv?$AAc?$AA7?$AAl?$AAi?$AAb?$AAs?$AA?2?$AAs?$AAh?$AAi?$AAp?$AA?2?$AAa?$AAt?$AAl?$AAm?$AAf@ 67dc13d0     atlsd:Externs.obj
 0002:0000943c       ??_C@_1M@HLGKFCJM@?$AAf?$AAa?$AAl?$AAs?$AAe?$AA?$AA@ 67dc143c     atlsd:Externs.obj
 0002:00009448       ??_C@_0DG@BLHODJEO@f?3?2dd?2vctools?2vc7libs?2ship?2atlmf@ 67dc1448     atlsd:Externs.obj
 0002:00009480       ??_C@_0BF@IAAKIJDJ@AtlThrow?3?5hr?5?$DN?50x?$CFx?6?$AA@ 67dc1480     atlsd:Externs.obj
 0002:00009498       ??_C@_0BA@MKMIKKJB@atlTraceGeneral?$AA@ 67dc1498     atlsd:atltrace.obj
 0002:000094a8       ??_C@_0M@DGPFJEBB@atlTraceCOM?$AA@ 67dc14a8     atlsd:atltrace.obj
 0002:000094b4       ??_C@_0L@LHELAKBP@atlTraceQI?$AA@ 67dc14b4     atlsd:atltrace.obj
 0002:000094c0       ??_C@_0BC@MALHFBAO@atlTraceRegistrar?$AA@ 67dc14c0     atlsd:atltrace.obj
 0002:000094d4       ??_C@_0BB@ILPPDKFL@atlTraceRefcount?$AA@ 67dc14d4     atlsd:atltrace.obj
 0002:000094e8       ??_C@_0BC@DGHHNKDC@atlTraceWindowing?$AA@ 67dc14e8     atlsd:atltrace.obj
 0002:000094fc       ??_C@_0BB@GHKJKKIE@atlTraceControls?$AA@ 67dc14fc     atlsd:atltrace.obj
 0002:00009510       ??_C@_0BA@DKOAAGGM@atlTraceHosting?$AA@ 67dc1510     atlsd:atltrace.obj
 0002:00009520       ??_C@_0BB@BEBMGMDO@atlTraceDBClient?$AA@ 67dc1520     atlsd:atltrace.obj
 0002:00009534       ??_C@_0BD@KOADKDIA@atlTraceDBProvider?$AA@ 67dc1534     atlsd:atltrace.obj
 0002:00009548       ??_C@_0P@LNEGBOLO@atlTraceSnapin?$AA@ 67dc1548     atlsd:atltrace.obj
 0002:00009558       ??_C@_0BA@MCBFIDIC@atlTraceNotImpl?$AA@ 67dc1558     atlsd:atltrace.obj
 0002:00009568       ??_C@_0BD@PJPCCAKP@atlTraceAllocation?$AA@ 67dc1568     atlsd:atltrace.obj
 0002:0000957c       ??_C@_0BC@PGMFNIFA@atlTraceException?$AA@ 67dc157c     atlsd:atltrace.obj
 0002:00009590       ??_C@_0N@BNNILHBE@atlTraceTime?$AA@ 67dc1590     atlsd:atltrace.obj
 0002:000095a0       ??_C@_0O@MEOJAOKK@atlTraceCache?$AA@ 67dc15a0     atlsd:atltrace.obj
 0002:000095b0       ??_C@_0BA@IDBKCKK@atlTraceStencil?$AA@ 67dc15b0     atlsd:atltrace.obj
 0002:000095c0       ??_C@_0P@MBNHGHMI@atlTraceString?$AA@ 67dc15c0     atlsd:atltrace.obj
 0002:000095d0       ??_C@_0M@IOBBMAHG@atlTraceMap?$AA@ 67dc15d0     atlsd:atltrace.obj
 0002:000095dc       ??_C@_0N@FEAAACHD@atlTraceUtil?$AA@ 67dc15dc     atlsd:atltrace.obj
 0002:000095ec       ??_C@_0BB@DNJDADMG@atlTraceSecurity?$AA@ 67dc15ec     atlsd:atltrace.obj
 0002:00009600       ??_C@_0N@KLPNCFEE@atlTraceSync?$AA@ 67dc1600     atlsd:atltrace.obj
 0002:00009610       ??_C@_0O@KHOBHOBJ@atlTraceISAPI?$AA@ 67dc1610     atlsd:atltrace.obj
 0002:00009620       ??_C@_0N@BEIMPMHB@atlTraceUser?$AA@ 67dc1620     atlsd:atltrace.obj
 0002:00009630       ??_C@_0O@MKGGJJCH@atlTraceUser2?$AA@ 67dc1630     atlsd:atltrace.obj
 0002:00009640       ??_C@_0O@NDHNKIGG@atlTraceUser3?$AA@ 67dc1640     atlsd:atltrace.obj
 0002:00009650       ??_C@_0O@JMDMDOKB@atlTraceUser4?$AA@ 67dc1650     atlsd:atltrace.obj
 0002:00009660       ??_C@_1HO@MNFHLCLF@?$AAf?$AA?3?$AA?2?$AAd?$AAd?$AA?2?$AAv?$AAc?$AAt?$AAo?$AAo?$AAl?$AAs?$AA?2?$AAv?$AAc?$AA7?$AAl?$AAi?$AAb?$AAs?$AA?2?$AAs?$AAh?$AAi?$AAp?$AA?2?$AAa?$AAt?$AAl?$AAm?$AAf@ 67dc1660     atlsd:AtlDebugAPI.obj
 0002:000096e0       ??_C@_1BK@LIHAAANN@?$AAp?$AAM?$AAo?$AAd?$AAu?$AAl?$AAe?$AA?5?$AA?$CB?$AA?$DN?$AA?5?$AA0?$AA?$AA@ 67dc16e0     atlsd:AtlDebugAPI.obj
 0002:000096fc       ??_C@_1BM@DFEBCPM@?$AAp?$AAP?$AAr?$AAo?$AAc?$AAe?$AAs?$AAs?$AA?5?$AA?$CB?$AA?$DN?$AA?5?$AA0?$AA?$AA@ 67dc16fc     atlsd:AtlDebugAPI.obj
 0002:00009718       ??_C@_1BM@GBBOFEAE@?$AA_?$AA_?$AAa?$AAt?$AAl?$AA_?$AAc?$AAo?$AAn?$AAd?$AAV?$AAa?$AAl?$AA?$AA@ 67dc1718     atlsd:AtlDebugAPI.obj
 0002:00009734       ??_C@_02DKCKIIND@?$CFs?$AA@ 67dc1734     atlsd:AtlDebugAPI.obj
 0002:00009738       ??_C@_04FFDMEMDO@?$CFS?3?5?$AA@ 67dc1738     atlsd:AtlDebugAPI.obj
 0002:00009740       ??_C@_09IIMHCEDG@?$CFs?$CI?$CFd?$CJ?5?3?5?$AA@ 67dc1740     atlsd:AtlDebugAPI.obj
 0002:0000974c       ??_C@_02KPKOKMHB@?$CFS?$AA@ 67dc174c     atlsd:AtlDebugAPI.obj
 0002:00009750       ??_C@_19JCANECJL@?$AA?$CF?$AAs?$AA?3?$AA?5?$AA?$AA@ 67dc1750     atlsd:AtlDebugAPI.obj
 0002:0000975c       ??_C@_1BE@PGKGHBDF@?$AA?$CF?$AAS?$AA?$CI?$AA?$CF?$AAd?$AA?$CJ?$AA?5?$AA?3?$AA?5?$AA?$AA@ 67dc175c     atlsd:AtlDebugAPI.obj
 0002:00009770       ??_C@_1DA@NMHCLMEJ@?$AAp?$AAA?$AAl?$AAl?$AAo?$AAc?$AAa?$AAt?$AAo?$AAr?$AA?9?$AA?$DO?$AAm?$AA_?$AAb?$AAS?$AAn?$AAa?$AAp?$AAs?$AAh?$AAo?$AAt?$AA?$AA@ 67dc1770     atlsd:AtlDebugAPI.obj
 0002:000097a0       ??_C@_1CE@NDBHOLMF@?$AAp?$AAP?$AAr?$AAo?$AAc?$AAe?$AAs?$AAs?$AAI?$AAn?$AAf?$AAo?$AA?5?$AA?$CB?$AA?$DN?$AA?5?$AA0?$AA?$AA@ 67dc17a0     atlsd:AtlDebugAPI.obj
 0002:000097c4       ??_C@_1CC@ONKAHKMP@?$AAp?$AAM?$AAo?$AAd?$AAu?$AAl?$AAe?$AAI?$AAn?$AAf?$AAo?$AA?5?$AA?$CB?$AA?$DN?$AA?5?$AA0?$AA?$AA@ 67dc17c4     atlsd:AtlDebugAPI.obj
 0002:000097e8       ??_C@_1CG@BANGGBIE@?$AAp?$AAC?$AAa?$AAt?$AAe?$AAg?$AAo?$AAr?$AAy?$AAI?$AAn?$AAf?$AAo?$AA?5?$AA?$CB?$AA?$DN?$AA?5?$AA0?$AA?$AA@ 67dc17e8     atlsd:AtlDebugAPI.obj
 0002:00009810       ??_C@_1BC@JOPFIJLO@?$AAp?$AAP?$AAr?$AAo?$AAc?$AAe?$AAs?$AAs?$AA?$AA@ 67dc1810     atlsd:AtlDebugAPI.obj
 0002:00009824       ??_C@_1DM@CECLCIOA@?$AAp?$AAp?$AAC?$AAa?$AAt?$AAe?$AAg?$AAo?$AAr?$AAy?$AA?5?$AA?$CG?$AA?$CG?$AA?5?$AAp?$AAf?$AAn?$AAC?$AAr?$AAt?$AAD?$AAb?$AAg?$AAR?$AAe?$AAp?$AAo?$AAr?$AAt?$AA?$AA@ 67dc1824     atlsd:AtlDebugAPI.obj
 0002:00009860       ??_C@_1HA@EFGOBFOA@?$AAf?$AA?3?$AA?2?$AAd?$AAd?$AA?2?$AAv?$AAc?$AAt?$AAo?$AAo?$AAl?$AAs?$AA?2?$AAv?$AAc?$AA7?$AAl?$AAi?$AAb?$AAs?$AA?2?$AAs?$AAh?$AAi?$AAp?$AA?2?$AAa?$AAt?$AAl?$AAm?$AAf@ 67dc1860     atlsd:AtlDebugAPI.obj
 0002:000098d0       ??_C@_1EA@JHMKKLFC@?$AAn?$AAI?$AAn?$AAd?$AAe?$AAx?$AA?5?$AA?$DO?$AA?$DN?$AA?5?$AA0?$AA?5?$AA?$CG?$AA?$CG?$AA?5?$AAn?$AAI?$AAn?$AAd?$AAe?$AAx?$AA?5?$AA?$DM?$AA?5?$AAm?$AA_?$AAn?$AAS?$AAi?$AAz?$AAe?$AA?$AA@ 67dc18d0     atlsd:AtlDebugAPI.obj
 0002:00009910       ??_C@_1GI@CLJCGCPP@?$AAf?$AA?3?$AA?2?$AAd?$AAd?$AA?2?$AAv?$AAc?$AAt?$AAo?$AAo?$AAl?$AAs?$AA?2?$AAv?$AAc?$AA7?$AAl?$AAi?$AAb?$AAs?$AA?2?$AAs?$AAh?$AAi?$AAp?$AA?2?$AAa?$AAt?$AAl?$AAm?$AAf@ 67dc1910     atlsd:AtlDebugAPI.obj
 0002:00009978       ??_C@_1BC@PMINONJG@?$AAb?$AAS?$AAu?$AAc?$AAc?$AAe?$AAs?$AAs?$AA?$AA@ 67dc1978     atlsd:Allocate.obj
 0002:00009990       ??_C@_1HI@MDMANKNC@?$AAf?$AA?3?$AA?2?$AAd?$AAd?$AA?2?$AAv?$AAc?$AAt?$AAo?$AAo?$AAl?$AAs?$AA?2?$AAv?$AAc?$AA7?$AAl?$AAi?$AAb?$AAs?$AA?2?$AAs?$AAh?$AAi?$AAp?$AA?2?$AAa?$AAt?$AAl?$AAm?$AAf@ 67dc1990     atlsd:Allocate.obj
 0002:00009a08       ??_C@_1DG@LHMNHOH@?$AA?$CB?$AAm?$AA_?$AAh?$AAM?$AAa?$AAp?$AA?5?$AA?$CG?$AA?$CG?$AA?5?$AA?$CB?$AAm?$AA_?$AAp?$AAB?$AAu?$AAf?$AAf?$AAe?$AAr?$AAS?$AAt?$AAa?$AAr?$AAt?$AA?$AA@ 67dc1a08     atlsd:Allocate.obj
 0002:00009a40       ??_C@_1CC@JCNIBNON@?$AAi?$AAM?$AAo?$AAd?$AAu?$AAl?$AAe?$AA?5?$AA?$DM?$AA?5?$AAm?$AAo?$AAd?$AAc?$AAn?$AAt?$AA?$AA@ 67dc1a40     atlsd:Allocate.obj
 0002:00009a68       ??_C@_1HO@KONLCGL@?$AA?$CI?$AAi?$AAC?$AAa?$AAt?$AAe?$AAg?$AAo?$AAr?$AAy?$AA?5?$AA?$DM?$AA?5?$AAm?$AA_?$AAp?$AAP?$AAr?$AAo?$AAc?$AAe?$AAs?$AAs?$AA?9?$AA?$DO?$AAC?$AAa?$AAt?$AAe?$AAg?$AAo?$AAr@ 67dc1a68     atlsd:Allocate.obj
 0002:00009ae8       ??_C@_1BG@EIHNOMMF@?$AAm?$AA_?$AAp?$AAP?$AAr?$AAo?$AAc?$AAe?$AAs?$AAs?$AA?$AA@ 67dc1ae8     atlsd:Allocate.obj
 0002:00009b00       ??_C@_1IO@GJLKCBCE@?$AAf?$AA?3?$AA?2?$AAd?$AAd?$AA?2?$AAv?$AAc?$AAt?$AAo?$AAo?$AAl?$AAs?$AA?2?$AAv?$AAc?$AA7?$AAl?$AAi?$AAb?$AAs?$AA?2?$AAs?$AAh?$AAi?$AAp?$AA?2?$AAa?$AAt?$AAl?$AAm?$AAf@ 67dc1b00     atlsd:Allocate.obj
 0002:00009b90       ??_C@_1BK@GFEAMNLJ@?$AAn?$AAC?$AAo?$AAo?$AAk?$AAi?$AAe?$AA?5?$AA?$CB?$AA?$DN?$AA?5?$AA0?$AA?$AA@ 67dc1b90     atlsd:Allocate.obj
 0002:00009bac       ??_C@_1BO@OAGIAJOK@?$AAp?$AAC?$AAa?$AAt?$AAe?$AAg?$AAo?$AAr?$AAy?$AA?5?$AA?$CB?$AA?$DN?$AA?5?$AA0?$AA?$AA@ 67dc1bac     atlsd:Allocate.obj
 0002:00009bcc       ??_C@_11LOCGONAA@?$AA?$AA@ 67dc1bcc     atlsd:AtlTraceModuleManager.obj
 0002:00009bd0       __load_config_used         67dc1bd0     msvcrtd:loadcfg.obj
 0002:00009c88       ??_R4CAbortDlg@@6B@        67dc1c88     AbortDlg.obj
 0002:00009c9c       ??_R3CAbortDlg@@8          67dc1c9c     AbortDlg.obj
 0002:00009cac       ??_R2CAbortDlg@@8          67dc1cac     AbortDlg.obj
 0002:00009cc4       ??_R1A@?0A@EA@CAbortDlg@@8 67dc1cc4     AbortDlg.obj
 0002:00009ce0       ??_R1A@?0A@EA@CDialog@@8   67dc1ce0     AbortDlg.obj
 0002:00009cfc       ??_R3CDialog@@8            67dc1cfc     AbortDlg.obj
 0002:00009d0c       ??_R2CDialog@@8            67dc1d0c     AbortDlg.obj
 0002:00009d20       ??_R1A@?0A@EA@CWnd@@8      67dc1d20     AbortDlg.obj
 0002:00009d3c       ??_R3CWnd@@8               67dc1d3c     AbortDlg.obj
 0002:00009d4c       ??_R2CWnd@@8               67dc1d4c     AbortDlg.obj
 0002:00009d5c       ??_R1A@?0A@EA@CCmdTarget@@8 67dc1d5c     AbortDlg.obj
 0002:00009d78       ??_R3CCmdTarget@@8         67dc1d78     AbortDlg.obj
 0002:00009d88       ??_R2CCmdTarget@@8         67dc1d88     AbortDlg.obj
 0002:00009d94       ??_R1A@?0A@EA@CObject@@8   67dc1d94     AbortDlg.obj
 0002:00009db0       ??_R3CObject@@8            67dc1db0     AbortDlg.obj
 0002:00009dc0       ??_R2CObject@@8            67dc1dc0     AbortDlg.obj
 0002:00009dc8       ??_R4CAcqConfigDlg@@6BCDialog@@@ 67dc1dc8     AcqConfigDlg.obj
 0002:00009ddc       ??_R3CAcqConfigDlg@@8      67dc1ddc     AcqConfigDlg.obj
 0002:00009dec       ??_R2CAcqConfigDlg@@8      67dc1dec     AcqConfigDlg.obj
 0002:00009e08       ??_R1A@?0A@EA@CAcqConfigDlg@@8 67dc1e08     AcqConfigDlg.obj
 0002:00009e24       ??_R1JE@?0A@EA@SapManager@@8 67dc1e24     AcqConfigDlg.obj
 0002:00009e40       ??_R3SapManager@@8         67dc1e40     AcqConfigDlg.obj
 0002:00009e50       ??_R2SapManager@@8         67dc1e50     AcqConfigDlg.obj
 0002:00009e58       ??_R1A@?0A@EA@SapManager@@8 67dc1e58     AcqConfigDlg.obj
 0002:00009e74       ??_R4CAcqConfigDlg@@6BSapManager@@@ 67dc1e74     AcqConfigDlg.obj
 0002:00009e88       ??_R4CAcqDlg@@6BCDialog@@@ 67dc1e88     AcqDlg.obj
 0002:00009e9c       ??_R3CAcqDlg@@8            67dc1e9c     AcqDlg.obj
 0002:00009eac       ??_R2CAcqDlg@@8            67dc1eac     AcqDlg.obj
 0002:00009ec8       ??_R1A@?0A@EA@CAcqDlg@@8   67dc1ec8     AcqDlg.obj
 0002:00009ee4       ??_R4CAcqDlg@@6BSapManager@@@ 67dc1ee4     AcqDlg.obj
 0002:00009ef8       ??_R4CAScanDlg@@6BCDialog@@@ 67dc1ef8     AScanDlg.obj
 0002:00009f0c       ??_R3CAScanDlg@@8          67dc1f0c     AScanDlg.obj
 0002:00009f1c       ??_R2CAScanDlg@@8          67dc1f1c     AScanDlg.obj
 0002:00009f38       ??_R1A@?0A@EA@CAScanDlg@@8 67dc1f38     AScanDlg.obj
 0002:00009f54       ??_R4CAScanDlg@@6BSapManager@@@ 67dc1f54     AScanDlg.obj
 0002:00009f68       ??_R4CAviFileDlg@@6B@      67dc1f68     AviFileDlg.obj
 0002:00009f7c       ??_R3CAviFileDlg@@8        67dc1f7c     AviFileDlg.obj
 0002:00009f8c       ??_R2CAviFileDlg@@8        67dc1f8c     AviFileDlg.obj
 0002:00009fa4       ??_R1A@?0A@EA@CAviFileDlg@@8 67dc1fa4     AviFileDlg.obj
 0002:00009fc0       ??_R4CBayerOptionsDlg@@6BCDialog@@@ 67dc1fc0     BayerDlg.obj
 0002:00009fd4       ??_R3CBayerOptionsDlg@@8   67dc1fd4     BayerDlg.obj
 0002:00009fe4       ??_R2CBayerOptionsDlg@@8   67dc1fe4     BayerDlg.obj
 0002:0000a000       ??_R1A@?0A@EA@CBayerOptionsDlg@@8 67dc2000     BayerDlg.obj
 0002:0000a01c       ??_R4CBayerOptionsDlg@@6BSapManager@@@ 67dc201c     BayerDlg.obj
 0002:0000a030       ??_R4CBufDlg@@6B@          67dc2030     BufDlg.obj
 0002:0000a044       ??_R3CBufDlg@@8            67dc2044     BufDlg.obj
 0002:0000a054       ??_R2CBufDlg@@8            67dc2054     BufDlg.obj
 0002:0000a06c       ??_R1A@?0A@EA@CBufDlg@@8   67dc206c     BufDlg.obj
 0002:0000a088       ??_R4CCabDlg@@6BCDialog@@@ 67dc2088     CabDlg.obj
 0002:0000a09c       ??_R3CCabDlg@@8            67dc209c     CabDlg.obj
 0002:0000a0ac       ??_R2CCabDlg@@8            67dc20ac     CabDlg.obj
 0002:0000a0c8       ??_R1A@?0A@EA@CCabDlg@@8   67dc20c8     CabDlg.obj
 0002:0000a0e4       ??_R4CCabDlg@@6BSapManager@@@ 67dc20e4     CabDlg.obj
 0002:0000a0f8       ??_R4SapCab@@6B@           67dc20f8     CabDlg.obj
 0002:0000a10c       ??_R3SapCab@@8             67dc210c     CabDlg.obj
 0002:0000a11c       ??_R2SapCab@@8             67dc211c     CabDlg.obj
 0002:0000a12c       ??_R1A@?0A@EA@SapCab@@8    67dc212c     CabDlg.obj
 0002:0000a148       ??_R1A@?0A@EA@SapXferNode@@8 67dc2148     CabDlg.obj
 0002:0000a164       ??_R3SapXferNode@@8        67dc2164     CabDlg.obj
 0002:0000a174       ??_R2SapXferNode@@8        67dc2174     CabDlg.obj
 0002:0000a180       ??_R4CCamVicDlg@@6BCDialog@@@ 67dc2180     CamVicDlg.obj
 0002:0000a194       ??_R3CCamVicDlg@@8         67dc2194     CamVicDlg.obj
 0002:0000a1a4       ??_R2CCamVicDlg@@8         67dc21a4     CamVicDlg.obj
 0002:0000a1c0       ??_R1A@?0A@EA@CCamVicDlg@@8 67dc21c0     CamVicDlg.obj
 0002:0000a1dc       ??_R4CCamVicDlg@@6BSapManager@@@ 67dc21dc     CamVicDlg.obj
 0002:0000a1f0       ??_R4CColorConversionOptionsDlg@@6BCDialog@@@ 67dc21f0     ColorConversionDlg.obj
 0002:0000a204       ??_R3CColorConversionOptionsDlg@@8 67dc2204     ColorConversionDlg.obj
 0002:0000a214       ??_R2CColorConversionOptionsDlg@@8 67dc2214     ColorConversionDlg.obj
 0002:0000a230       ??_R1A@?0A@EA@CColorConversionOptionsDlg@@8 67dc2230     ColorConversionDlg.obj
 0002:0000a24c       ??_R4CColorConversionOptionsDlg@@6BSapManager@@@ 67dc224c     ColorConversionDlg.obj
 0002:0000a260       ??_R4CCompDlg@@6BCDialog@@@ 67dc2260     CompDlg.obj
 0002:0000a274       ??_R3CCompDlg@@8           67dc2274     CompDlg.obj
 0002:0000a284       ??_R2CCompDlg@@8           67dc2284     CompDlg.obj
 0002:0000a2a0       ??_R1A@?0A@EA@CCompDlg@@8  67dc22a0     CompDlg.obj
 0002:0000a2bc       ??_R4CCompDlg@@6BSapManager@@@ 67dc22bc     CompDlg.obj
 0002:0000a2d0       ??_R4CFlatFieldDlg@@6BCDialog@@@ 67dc22d0     FlatFieldDlg.obj
 0002:0000a2e4       ??_R3CFlatFieldDlg@@8      67dc22e4     FlatFieldDlg.obj
 0002:0000a2f4       ??_R2CFlatFieldDlg@@8      67dc22f4     FlatFieldDlg.obj
 0002:0000a310       ??_R1A@?0A@EA@CFlatFieldDlg@@8 67dc2310     FlatFieldDlg.obj
 0002:0000a32c       ??_R4CFlatFieldDlg@@6BSapManager@@@ 67dc232c     FlatFieldDlg.obj
 0002:0000a340       ??_R4SapBuffer@@6B@        67dc2340     FlatFieldDlg.obj
 0002:0000a354       ??_R3SapBuffer@@8          67dc2354     FlatFieldDlg.obj
 0002:0000a364       ??_R2SapBuffer@@8          67dc2364     FlatFieldDlg.obj
 0002:0000a374       ??_R1A@?0A@EA@SapBuffer@@8 67dc2374     FlatFieldDlg.obj
 0002:0000a390       ??_R4CGioBidirectionalDlg@@6B@ 67dc2390     GioBidirectionalDlg.obj
 0002:0000a3a4       ??_R3CGioBidirectionalDlg@@8 67dc23a4     GioBidirectionalDlg.obj
 0002:0000a3b4       ??_R2CGioBidirectionalDlg@@8 67dc23b4     GioBidirectionalDlg.obj
 0002:0000a3cc       ??_R1A@?0A@EA@CGioBidirectionalDlg@@8 67dc23cc     GioBidirectionalDlg.obj
 0002:0000a3e8       ??_R4CGioInputDlg@@6B@     67dc23e8     GioInputDlg.obj
 0002:0000a3fc       ??_R3CGioInputDlg@@8       67dc23fc     GioInputDlg.obj
 0002:0000a40c       ??_R2CGioInputDlg@@8       67dc240c     GioInputDlg.obj
 0002:0000a424       ??_R1A@?0A@EA@CGioInputDlg@@8 67dc2424     GioInputDlg.obj
 0002:0000a440       ??_R4CGioOutputDlg@@6B@    67dc2440     GioOutputDlg.obj
 0002:0000a454       ??_R3CGioOutputDlg@@8      67dc2454     GioOutputDlg.obj
 0002:0000a464       ??_R2CGioOutputDlg@@8      67dc2464     GioOutputDlg.obj
 0002:0000a47c       ??_R1A@?0A@EA@CGioOutputDlg@@8 67dc247c     GioOutputDlg.obj
 0002:0000a498       ??_R4CImageWnd@@6B@        67dc2498     ImageWnd.obj
 0002:0000a4ac       ??_R3CImageWnd@@8          67dc24ac     ImageWnd.obj
 0002:0000a4bc       ??_R2CImageWnd@@8          67dc24bc     ImageWnd.obj
 0002:0000a4c4       ??_R1A@?0A@EA@CImageWnd@@8 67dc24c4     ImageWnd.obj
 0002:0000a4e0       ??_R4CSapRectTracker@@6B@  67dc24e0     ImageWnd.obj
 0002:0000a4f4       ??_R3CSapRectTracker@@8    67dc24f4     ImageWnd.obj
 0002:0000a504       ??_R2CSapRectTracker@@8    67dc2504     ImageWnd.obj
 0002:0000a510       ??_R1A@?0A@EA@CSapRectTracker@@8 67dc2510     ImageWnd.obj
 0002:0000a52c       ??_R1A@?0A@EA@CRectTracker@@8 67dc252c     ImageWnd.obj
 0002:0000a548       ??_R3CRectTracker@@8       67dc2548     ImageWnd.obj
 0002:0000a558       ??_R2CRectTracker@@8       67dc2558     ImageWnd.obj
 0002:0000a560       ??_R4CJpegFileDlg@@6B@     67dc2560     JpegFileDlg.obj
 0002:0000a574       ??_R3CJpegFileDlg@@8       67dc2574     JpegFileDlg.obj
 0002:0000a584       ??_R2CJpegFileDlg@@8       67dc2584     JpegFileDlg.obj
 0002:0000a59c       ??_R1A@?0A@EA@CJpegFileDlg@@8 67dc259c     JpegFileDlg.obj
 0002:0000a5b8       ??_R4CLoadSaveDlg@@6B@     67dc25b8     LoadSaveDlg.obj
 0002:0000a5cc       ??_R3CLoadSaveDlg@@8       67dc25cc     LoadSaveDlg.obj
 0002:0000a5dc       ??_R2CLoadSaveDlg@@8       67dc25dc     LoadSaveDlg.obj
 0002:0000a5fc       ??_R1A@?0A@EA@CLoadSaveDlg@@8 67dc25fc     LoadSaveDlg.obj
 0002:0000a618       ??_R1A@?0A@EA@CFileDialog@@8 67dc2618     LoadSaveDlg.obj
 0002:0000a634       ??_R3CFileDialog@@8        67dc2634     LoadSaveDlg.obj
 0002:0000a644       ??_R2CFileDialog@@8        67dc2644     LoadSaveDlg.obj
 0002:0000a660       ??_R1A@?0A@EA@CCommonDialog@@8 67dc2660     LoadSaveDlg.obj
 0002:0000a67c       ??_R3CCommonDialog@@8      67dc267c     LoadSaveDlg.obj
 0002:0000a68c       ??_R2CCommonDialog@@8      67dc268c     LoadSaveDlg.obj
 0002:0000a6a4       ??_R4CLScanDlg@@6BCDialog@@@ 67dc26a4     LScanDlg.obj
 0002:0000a6b8       ??_R3CLScanDlg@@8          67dc26b8     LScanDlg.obj
 0002:0000a6c8       ??_R2CLScanDlg@@8          67dc26c8     LScanDlg.obj
 0002:0000a6e4       ??_R1A@?0A@EA@CLScanDlg@@8 67dc26e4     LScanDlg.obj
 0002:0000a700       ??_R4CLScanDlg@@6BSapManager@@@ 67dc2700     LScanDlg.obj
 0002:0000a714       ??_R4CPixProAbsSubDlg@@6B@ 67dc2714     PixProAbsSubDlg.obj
 0002:0000a728       ??_R3CPixProAbsSubDlg@@8   67dc2728     PixProAbsSubDlg.obj
 0002:0000a738       ??_R2CPixProAbsSubDlg@@8   67dc2738     PixProAbsSubDlg.obj
 0002:0000a750       ??_R1A@?0A@EA@CPixProAbsSubDlg@@8 67dc2750     PixProAbsSubDlg.obj
 0002:0000a76c       ??_R4CPixProDlg@@6B@       67dc276c     PixProDlg.obj
 0002:0000a780       ??_R3CPixProDlg@@8         67dc2780     PixProDlg.obj
 0002:0000a790       ??_R2CPixProDlg@@8         67dc2790     PixProDlg.obj
 0002:0000a7a8       ??_R1A@?0A@EA@CPixProDlg@@8 67dc27a8     PixProDlg.obj
 0002:0000a7c4       ??_R4CPixProIntScaleDlg@@6B@ 67dc27c4     PixProIntScaleDlg.obj
 0002:0000a7d8       ??_R3CPixProIntScaleDlg@@8 67dc27d8     PixProIntScaleDlg.obj
 0002:0000a7e8       ??_R2CPixProIntScaleDlg@@8 67dc27e8     PixProIntScaleDlg.obj
 0002:0000a800       ??_R1A@?0A@EA@CPixProIntScaleDlg@@8 67dc2800     PixProIntScaleDlg.obj
 0002:0000a81c       ??_R4CPixProRefImageDlg@@6B@ 67dc281c     PixProRefImageDlg.obj
 0002:0000a830       ??_R3CPixProRefImageDlg@@8 67dc2830     PixProRefImageDlg.obj
 0002:0000a840       ??_R2CPixProRefImageDlg@@8 67dc2840     PixProRefImageDlg.obj
 0002:0000a858       ??_R1A@?0A@EA@CPixProRefImageDlg@@8 67dc2858     PixProRefImageDlg.obj
 0002:0000a874       ??_R4CPixProUflowSubDlg@@6B@ 67dc2874     PixProUflowSubDlg.obj
 0002:0000a888       ??_R3CPixProUflowSubDlg@@8 67dc2888     PixProUflowSubDlg.obj
 0002:0000a898       ??_R2CPixProUflowSubDlg@@8 67dc2898     PixProUflowSubDlg.obj
 0002:0000a8b0       ??_R1A@?0A@EA@CPixProUflowSubDlg@@8 67dc28b0     PixProUflowSubDlg.obj
 0002:0000a8cc       ??_R4CPixProWAvgDlg@@6B@   67dc28cc     PixProWAvgDlg.obj
 0002:0000a8e0       ??_R3CPixProWAvgDlg@@8     67dc28e0     PixProWAvgDlg.obj
 0002:0000a8f0       ??_R2CPixProWAvgDlg@@8     67dc28f0     PixProWAvgDlg.obj
 0002:0000a908       ??_R1A@?0A@EA@CPixProWAvgDlg@@8 67dc2908     PixProWAvgDlg.obj
 0002:0000a924       ??_R4CRawFileDlg@@6B@      67dc2924     RawFileDlg.obj
 0002:0000a938       ??_R3CRawFileDlg@@8        67dc2938     RawFileDlg.obj
 0002:0000a948       ??_R2CRawFileDlg@@8        67dc2948     RawFileDlg.obj
 0002:0000a960       ??_R1A@?0A@EA@CRawFileDlg@@8 67dc2960     RawFileDlg.obj
 0002:0000a97c       ??_R4CRectTracker@@6B@     67dc297c     SapClassGui.obj
 0002:0000a990       ??_R4Thank_you@Define_the_symbol__ATL_MIXED@@6B@ 67dc2990     SapClassGui.obj
 0002:0000a9a4       ??_R3Thank_you@Define_the_symbol__ATL_MIXED@@8 67dc29a4     SapClassGui.obj
 0002:0000a9b4       ??_R2Thank_you@Define_the_symbol__ATL_MIXED@@8 67dc29b4     SapClassGui.obj
 0002:0000a9bc       ??_R1A@?0A@EA@Thank_you@Define_the_symbol__ATL_MIXED@@8 67dc29bc     SapClassGui.obj
 0002:0000a9d8       ??_R4CTiffFileDlg@@6B@     67dc29d8     TiffFileDlg.obj
 0002:0000a9ec       ??_R3CTiffFileDlg@@8       67dc29ec     TiffFileDlg.obj
 0002:0000a9fc       ??_R2CTiffFileDlg@@8       67dc29fc     TiffFileDlg.obj
 0002:0000aa14       ??_R1A@?0A@EA@CTiffFileDlg@@8 67dc2a14     TiffFileDlg.obj
 0002:0000aa30       ??_R4CViewDlg@@6B@         67dc2a30     ViewDlg.obj
 0002:0000aa44       ??_R3CViewDlg@@8           67dc2a44     ViewDlg.obj
 0002:0000aa54       ??_R2CViewDlg@@8           67dc2a54     ViewDlg.obj
 0002:0000aa6c       ??_R1A@?0A@EA@CViewDlg@@8  67dc2a6c     ViewDlg.obj
 0002:0000aa88       ??_R4type_info@@6B@        67dc2a88     msvcrtd:ti_inst.obj
 0002:0000aa9c       ??_R3type_info@@8          67dc2a9c     msvcrtd:ti_inst.obj
 0002:0000aaac       ??_R2type_info@@8          67dc2aac     msvcrtd:ti_inst.obj
 0002:0000aab4       ??_R1A@?0A@EA@type_info@@8 67dc2ab4     msvcrtd:ti_inst.obj
 0002:0000aad0       ___safe_se_handler_table   67dc2ad0     <linker-defined>
 0002:0000acec       ___rtc_iaa                 67dc2cec     msvcrtd:_initsect_.obj
 0002:0000ad68       ___rtc_izz                 67dc2d68     msvcrtd:_initsect_.obj
 0002:0000ad6c       ___rtc_taa                 67dc2d6c     msvcrtd:_initsect_.obj
 0002:0000ade8       ___rtc_tzz                 67dc2de8     msvcrtd:_initsect_.obj
 0002:0000d004       __TI1?AVCAtlException@ATL@@ 67dc5004     atlsd:Externs.obj
 0002:0000d014       __CTA1?AVCAtlException@ATL@@ 67dc5014     atlsd:Externs.obj
 0002:0000d01c       __CT??_R0?AVCAtlException@ATL@@@84 67dc501c     atlsd:Externs.obj
 0002:0000d074       ___pobjMapEntryFirst       67dc5074     SapClassGui.obj
 0002:0000d078       ___pobjMapEntryLast        67dc5078     SapClassGui.obj
 0002:0000d07c       __IMPORT_DESCRIPTOR_CORAPI 67dc507c     Corapi:CORAPI.dll
 0002:0000d090       __IMPORT_DESCRIPTOR_SapClassBasic80 67dc5090     SapClassBasic:SapClassBasic80.dll
 0002:0000d0a4       __IMPORT_DESCRIPTOR_mfc100d 67dc50a4     mfc100d:mfc100d.dll
 0002:0000d0b8       __IMPORT_DESCRIPTOR_MSVCR100D 67dc50b8     msvcrtd:MSVCR100D.dll
 0002:0000d0cc       __IMPORT_DESCRIPTOR_KERNEL32 67dc50cc     kernel32:KERNEL32.dll
 0002:0000d0e0       __IMPORT_DESCRIPTOR_USER32 67dc50e0     user32:USER32.dll
 0002:0000d0f4       __IMPORT_DESCRIPTOR_COMDLG32 67dc50f4     comdlg32:COMDLG32.dll
 0002:0000d108       __IMPORT_DESCRIPTOR_OLEAUT32 67dc5108     oleaut32:OLEAUT32.dll
 0002:0000d11c       __IMPORT_DESCRIPTOR_ADVAPI32 67dc511c     advapi32:ADVAPI32.dll
 0002:0000d130       __NULL_IMPORT_DESCRIPTOR   67dc5130     Corapi:CORAPI.dll
 0003:00000010       ??_R0?AVCAbortDlg@@@8      67dd0010     AbortDlg.obj
 0003:00000028       ??_R0?AVCDialog@@@8        67dd0028     AbortDlg.obj
 0003:00000040       ??_R0?AVCWnd@@@8           67dd0040     AbortDlg.obj
 0003:00000054       ??_R0?AVCCmdTarget@@@8     67dd0054     AbortDlg.obj
 0003:00000070       ??_R0?AVCObject@@@8        67dd0070     AbortDlg.obj
 0003:000000b0       ??_R0?AVCAcqConfigDlg@@@8  67dd00b0     AcqConfigDlg.obj
 0003:000000cc       ??_R0?AVSapManager@@@8     67dd00cc     AcqConfigDlg.obj
 0003:000000f4       ??_R0?AVCAcqDlg@@@8        67dd00f4     AcqDlg.obj
 0003:0000011c       ??_R0?AVCAScanDlg@@@8      67dd011c     AScanDlg.obj
 0003:00000144       ??_R0?AVCAviFileDlg@@@8    67dd0144     AviFileDlg.obj
 0003:00000170       ?m_AlignValues@CBayerOptionsDlg@@0PAHA 67dd0170     BayerDlg.obj
 0003:00000180       ?m_MethodValues@CBayerOptionsDlg@@0PAHA 67dd0180     BayerDlg.obj
 0003:00000198       ??_R0?AVCBayerOptionsDlg@@@8 67dd0198     BayerDlg.obj
 0003:000001c8       ?m_FormatInfo@CBufDlg@@1PAVSapFormatInfo@@A 67dd01c8     BufDlg.obj
 0003:00000290       ??_R0?AVCBufDlg@@@8        67dd0290     BufDlg.obj
 0003:000002b4       ?m_transferModeInfo@CCabDlg@@1PAUTRANSFERMODEINFO@@A 67dd02b4     CabDlg.obj
 0003:000002d8       ?m_chControlId@CCabDlg@@1PAHA 67dd02d8     CabDlg.obj
 0003:00000318       ??_R0?AVCCabDlg@@@8        67dd0318     CabDlg.obj
 0003:00000330       ??_R0?AVSapCab@@@8         67dd0330     CabDlg.obj
 0003:00000348       ??_R0?AVSapXferNode@@@8    67dd0348     CabDlg.obj
 0003:0000038c       ??_R0?AVCCamVicDlg@@@8     67dd038c     CamVicDlg.obj
 0003:000003c0       ?m_Aligns@CColorConversionOptionsDlg@@0PAHA 67dd03c0     ColorConversionDlg.obj
 0003:000003d8       ??_R0?AVCColorConversionOptionsDlg@@@8 67dd03d8     ColorConversionDlg.obj
 0003:00000410       ??_R0?AVCCompDlg@@@8       67dd0410     CompDlg.obj
 0003:0000043c       ??_R0?AVCFlatFieldDlg@@@8  67dd043c     FlatFieldDlg.obj
 0003:00000458       ??_R0?AVSapBuffer@@@8      67dd0458     FlatFieldDlg.obj
 0003:00000488       ??_R0?AVCGioBidirectionalDlg@@@8 67dd0488     GioBidirectionalDlg.obj
 0003:000004bc       ??_R0?AVCGioInputDlg@@@8   67dd04bc     GioInputDlg.obj
 0003:000004ec       ??_R0?AVCGioOutputDlg@@@8  67dd04ec     GioOutputDlg.obj
 0003:00000508       ??_R0?AVCImageWnd@@@8      67dd0508     ImageWnd.obj
 0003:00000520       ??_R0?AVCSapRectTracker@@@8 67dd0520     ImageWnd.obj
 0003:00000540       ??_R0?AVCRectTracker@@@8   67dd0540     ImageWnd.obj
 0003:0000055c       ?_dwStockPropMask@CJpegFileDlg@@0KA 67dd055c     JpegFileDlg.obj
 0003:00000560       ?_dispatchEntryCount@CJpegFileDlg@@0IA 67dd0560     JpegFileDlg.obj
 0003:00000574       ??_R0?AVCJpegFileDlg@@@8   67dd0574     JpegFileDlg.obj
 0003:000005a0       ?m_StandardTypes@CLoadSaveDlg@@1PAHA 67dd05a0     LoadSaveDlg.obj
 0003:000005b8       ?m_StandardExtensions@CLoadSaveDlg@@1PAY04DA 67dd05b8     LoadSaveDlg.obj
 0003:000005d8       ?m_SequenceTypes@CLoadSaveDlg@@1PAHA 67dd05d8     LoadSaveDlg.obj
 0003:000005e0       ?m_ConversionTable@CLoadSaveDlg@@1PAUCONVERSION_TABLE@@A 67dd05e0     LoadSaveDlg.obj
 0003:00000a08       ??_R0?AVCLoadSaveDlg@@@8   67dd0a08     LoadSaveDlg.obj
 0003:00000a24       ??_R0?AVCFileDialog@@@8    67dd0a24     LoadSaveDlg.obj
 0003:00000a40       ??_R0?AVCCommonDialog@@@8  67dd0a40     LoadSaveDlg.obj
 0003:00000a6c       ??_R0?AVCLScanDlg@@@8      67dd0a6c     LScanDlg.obj
 0003:00000a98       ??_R0?AVCPixProAbsSubDlg@@@8 67dd0a98     PixProAbsSubDlg.obj
 0003:00000ac8       ??_R0?AVCPixProDlg@@@8     67dd0ac8     PixProDlg.obj
 0003:00000afc       ??_R0?AVCPixProIntScaleDlg@@@8 67dd0afc     PixProIntScaleDlg.obj
 0003:00000b38       ??_R0?AVCPixProRefImageDlg@@@8 67dd0b38     PixProRefImageDlg.obj
 0003:00000b74       ??_R0?AVCPixProUflowSubDlg@@@8 67dd0b74     PixProUflowSubDlg.obj
 0003:00000bac       ??_R0?AVCPixProWAvgDlg@@@8 67dd0bac     PixProWAvgDlg.obj
 0003:00000be0       ?m_FormatInfo@CRawFileDlg@@1PAVSapFormatInfo@@A 67dd0be0     RawFileDlg.obj
 0003:00000ca8       ??_R0?AVCRawFileDlg@@@8    67dd0ca8     RawFileDlg.obj
 0003:00000cc4       __pIncludeInitManaged      67dd0cc4     SapClassGui.obj
 0003:00000cd8       ??_R0?AUThank_you@Define_the_symbol__ATL_MIXED@@@8 67dd0cd8     SapClassGui.obj
 0003:00000d20       ??_R0?AVCTiffFileDlg@@@8   67dd0d20     TiffFileDlg.obj
 0003:00000d48       ??_R0?AVCViewDlg@@@8       67dd0d48     ViewDlg.obj
 0003:00000d60       ??_R0?AVtype_info@@@8      67dd0d60     msvcrtd:ti_inst.obj
 0003:00000d78       ___security_cookie         67dd0d78     msvcrtd:gs_cookie.obj
 0003:00000d7c       ___security_cookie_complement 67dd0d7c     msvcrtd:gs_cookie.obj
 0003:00000d80       ?_RTC_ErrorLevels@@3PAHA   67dd0d80     msvcrtd:_error_.obj
 0003:00000d94       ___native_dllmain_reason   67dd0d94     msvcrtd:natstart.obj
 0003:00000d98       ___native_vcclrit_reason   67dd0d98     msvcrtd:natstart.obj
 0003:00000d9c       ?g_pszUpdateEventName@@3PBDB 67dd0d9c     atlsd:Externs.obj
 0003:00000da0       ?g_pszAllocFileMapName@@3PBDB 67dd0da0     atlsd:Externs.obj
 0003:00000da4       ?g_pszKernelObjFmt@@3PBDB  67dd0da4     atlsd:Externs.obj
 0003:00000da8       ??_R0?AVCAtlException@ATL@@@8 67dd0da8     atlsd:Externs.obj
 0003:00000dc8       ?m_Methods@CColorConversionOptionsDlg@@0PAUSapColorConversionMethodDictionary@@A 67dd0dc8     ColorConversionDlg.obj
 0003:00000e0c       ?m_TiffCompressionTypes@CLoadSaveDlg@@1PAV?$CStringT@DV?$StrTraitMFC_DLL@DV?$ChTraitsCRT@D@ATL@@@@@ATL@@A 67dd0e0c     LoadSaveDlg.obj
 0003:00000e1c       ?_pAtlAutoThreadModule@ATL@@3PAUIAtlAutoThreadModule@1@A 67dd0e1c     SapClassGui.obj
 0003:00000e20       __afxForceEXTDLL           67dd0e20     SapClassGui.obj
 0003:00000e24       ___@@_PchSym_@00@UfhvihUqzvdllpUwlxfnvmghUhzkvizPeIOACUxozhhvhUtfrUwvyftOmvgPCABAUhzkxozhhtfrOlyq@ 67dd0e24     SapClassGui.obj
 0003:00000e3c       ?s_pfnPrevHook@CNoUIAssertHook@ATL@@0P6AHHPADPAH@ZA 67dd0e3c     SapClassGui.obj
 0003:00000e40       ?m_bInitFailed@CAtlBaseModule@ATL@@2_NA 67dd0e40     SapClassGui.obj
 0003:00000e44       ?s_pLog@CFixedStringMgr@ATL@@2PAVIFixedStringLog@2@A 67dd0e44     SapClassGui.obj
 0003:00000e48       ?_pPerfRegFunc@ATL@@3P6AJPAUHINSTANCE__@@@ZA 67dd0e48     SapClassGui.obj
 0003:00000e4c       ?_pPerfUnRegFunc@ATL@@3P6AJXZA 67dd0e4c     SapClassGui.obj
 0003:00000e50       ?_AtlRegisterPerUser@ATL@@3_NA 67dd0e50     SapClassGui.obj
 0003:00000e54       ?_pAtlModule@ATL@@3PAVCAtlModule@1@A 67dd0e54     SapClassGui.obj
 0003:00000e58       ?m_libid@CAtlModule@ATL@@2U_GUID@@A 67dd0e58     SapClassGui.obj
 0003:00000e68       ?_pModule@ATL@@3PAVCComModule@1@A 67dd0e68     SapClassGui.obj
 0003:00000e6c       ?ATL_CREATE_OBJECT@CComApartment@ATL@@2IA 67dd0e6c     SapClassGui.obj
 0003:00000e70       ?clash@Define_the_symbol__ATL_MIXED@@3UThank_you@1@A 67dd0e70     SapClassGui.obj
 0003:00000e74       ?clash@Inconsistent_definition_of_symbol__ATL_MIXED@@3U_Please_define_it_the_same_throughout_your_project@1@A 67dd0e74     SapClassGui.obj
 0003:00000e78       __afxForceEXCLUDE          67dd0e78     mfcs100d:nolib.obj
 0003:00000e7c       ?WM_DESTROYMODELESS@CDHtmlDialog@@1IA 67dd0e7c     mfcs100d:nolib.obj
 0003:00000e80       __afxForceSTDAFX           67dd0e80     mfcs100d:stdafx.obj
 0003:00000e8c       ?wsprintffp@@3P6AHPADPBDZZA 67dd0e8c     msvcrtd:_error_.obj
 0003:000011bc       ?__type_info_root_node@@3U__type_info_node@@A 67dd11bc     msvcrtd:tncleanup.obj
 0003:000011cc       ?g_Allocator@@3VCAtlAllocator@@A 67dd11cc     atlsd:Externs.obj
 0003:00001200       ?s_trace@CTrace@ATL@@2V12@A 67dd1200     atlsd:Externs.obj
 0003:00001208       ?atlTraceGeneral@ATL@@3VCTraceCategory@1@A 67dd1208     atlsd:atltrace.obj
 0003:0000120c       ?atlTraceCOM@ATL@@3VCTraceCategory@1@A 67dd120c     atlsd:atltrace.obj
 0003:00001210       ?atlTraceQI@ATL@@3VCTraceCategory@1@A 67dd1210     atlsd:atltrace.obj
 0003:00001214       ?atlTraceRegistrar@ATL@@3VCTraceCategory@1@A 67dd1214     atlsd:atltrace.obj
 0003:00001218       ?atlTraceRefcount@ATL@@3VCTraceCategory@1@A 67dd1218     atlsd:atltrace.obj
 0003:0000121c       ?atlTraceWindowing@ATL@@3VCTraceCategory@1@A 67dd121c     atlsd:atltrace.obj
 0003:00001220       ?atlTraceControls@ATL@@3VCTraceCategory@1@A 67dd1220     atlsd:atltrace.obj
 0003:00001224       ?atlTraceHosting@ATL@@3VCTraceCategory@1@A 67dd1224     atlsd:atltrace.obj
 0003:00001228       ?atlTraceDBClient@ATL@@3VCTraceCategory@1@A 67dd1228     atlsd:atltrace.obj
 0003:0000122c       ?atlTraceDBProvider@ATL@@3VCTraceCategory@1@A 67dd122c     atlsd:atltrace.obj
 0003:00001230       ?atlTraceSnapin@ATL@@3VCTraceCategory@1@A 67dd1230     atlsd:atltrace.obj
 0003:00001234       ?atlTraceNotImpl@ATL@@3VCTraceCategory@1@A 67dd1234     atlsd:atltrace.obj
 0003:00001238       ?atlTraceAllocation@ATL@@3VCTraceCategory@1@A 67dd1238     atlsd:atltrace.obj
 0003:0000123c       ?atlTraceException@ATL@@3VCTraceCategory@1@A 67dd123c     atlsd:atltrace.obj
 0003:00001240       ?atlTraceTime@ATL@@3VCTraceCategory@1@A 67dd1240     atlsd:atltrace.obj
 0003:00001244       ?atlTraceCache@ATL@@3VCTraceCategory@1@A 67dd1244     atlsd:atltrace.obj
 0003:00001248       ?atlTraceStencil@ATL@@3VCTraceCategory@1@A 67dd1248     atlsd:atltrace.obj
 0003:0000124c       ?atlTraceString@ATL@@3VCTraceCategory@1@A 67dd124c     atlsd:atltrace.obj
 0003:00001250       ?atlTraceMap@ATL@@3VCTraceCategory@1@A 67dd1250     atlsd:atltrace.obj
 0003:00001254       ?atlTraceUtil@ATL@@3VCTraceCategory@1@A 67dd1254     atlsd:atltrace.obj
 0003:00001258       ?atlTraceSecurity@ATL@@3VCTraceCategory@1@A 67dd1258     atlsd:atltrace.obj
 0003:0000125c       ?atlTraceSync@ATL@@3VCTraceCategory@1@A 67dd125c     atlsd:atltrace.obj
 0003:00001260       ?atlTraceISAPI@ATL@@3VCTraceCategory@1@A 67dd1260     atlsd:atltrace.obj
 0003:00001264       ?atlTraceUser@ATL@@3VCTraceCategory@1@A 67dd1264     atlsd:atltrace.obj
 0003:00001268       ?atlTraceUser2@ATL@@3VCTraceCategory@1@A 67dd1268     atlsd:atltrace.obj
 0003:0000126c       ?atlTraceUser3@ATL@@3VCTraceCategory@1@A 67dd126c     atlsd:atltrace.obj
 0003:00001270       ?atlTraceUser4@ATL@@3VCTraceCategory@1@A 67dd1270     atlsd:atltrace.obj
 0003:00001274       ___native_startup_state    67dd1274     <common>
 0003:00001278       ___native_startup_lock     67dd1278     <common>
 0003:0000127c       ___sse2_available          67dd127c     <common>
 0003:00001280       ___dyn_tls_init_callback   67dd1280     <common>
 0003:00001284       ___onexitend               67dd1284     <common>
 0003:00001288       ___onexitbegin             67dd1288     <common>

 entry point at        0001:0002c4d0

 Static symbols

 0001:fffff000       __unwindfunclet$??1CAcqConfigDlg@@UAE@XZ$0 67d80000 f   SapClassGui.obj
 0001:fffff000       __unwindfunclet$??1CCamVicDlg@@UAE@XZ$0 67d80000 f   SapClassGui.obj
 0001:fffff000       __unwindfunclet$??1CGioInputDlg@@UAE@XZ$0 67d80000 f   SapClassGui.obj
 0001:fffff000       __unwindfunclet$??1CPixProWAvgDlg@@UAE@XZ$0 67d80000 f   PixProWAvgDlg.obj
 0001:fffff000       __unwindfunclet$??HATL@@YA?AV?$CStringT@DV?$StrTraitMFC_DLL@DV?$ChTraitsCRT@D@ATL@@@@@0@ABV10@0@Z$0 67d80000 f   BrowseDirDlg.obj
 0001:fffff000       __unwindfunclet$??1CLScanDlg@@UAE@XZ$0 67d80000 f   SapClassGui.obj
 0001:fffff000       __unwindfunclet$??1CGioBidirectionalDlg@@UAE@XZ$0 67d80000 f   SapClassGui.obj
 0001:fffff000       __unwindfunclet$??1CBufDlg@@UAE@XZ$0 67d80000 f   SapClassGui.obj
 0001:fffff000       __unwindfunclet$??HATL@@YA?AV?$CStringT@DV?$StrTraitMFC_DLL@DV?$ChTraitsCRT@D@ATL@@@@@0@ABV10@0@Z$0 67d80000 f   CamVicDlg.obj
 0001:fffff000       __unwindfunclet$??1CAScanDlg@@UAE@XZ$0 67d80000 f   SapClassGui.obj
 0001:fffff000       __unwindfunclet$??1CViewDlg@@UAE@XZ$0 67d80000 f   ViewDlg.obj
 0001:fffff000       __unwindfunclet$??1CPixProDlg@@UAE@XZ$0 67d80000 f   SapClassGui.obj
 0001:fffff000       __unwindfunclet$??1CPixProIntScaleDlg@@UAE@XZ$0 67d80000 f   PixProIntScaleDlg.obj
 0001:fffff000       __unwindfunclet$??HATL@@YA?AV?$CStringT@DV?$StrTraitMFC_DLL@DV?$ChTraitsCRT@D@ATL@@@@@0@ABV10@PBD@Z$0 67d80000 f   ColorConversionDlg.obj
 0001:fffff000       __unwindfunclet$??1CCompDlg@@UAE@XZ$0 67d80000 f   SapClassGui.obj
 0001:fffff000       __unwindfunclet$??1CRawFileDlg@@UAE@XZ$0 67d80000 f   RawFileDlg.obj
 0001:fffff000       __unwindfunclet$??1CAcqDlg@@UAE@XZ$0 67d80000 f   SapClassGui.obj
 0001:fffff000       __unwindfunclet$??1CGioOutputDlg@@UAE@XZ$0 67d80000 f   SapClassGui.obj
 0001:fffff008       __ehhandler$??1CRawFileDlg@@UAE@XZ 67d80008 f   RawFileDlg.obj
 0001:fffff008       __unwindfunclet$??1CAScanDlg@@UAE@XZ$1 67d80008 f   SapClassGui.obj
 0001:fffff008       __unwindfunclet$??1CViewDlg@@UAE@XZ$1 67d80008 f   ViewDlg.obj
 0001:fffff008       __unwindfunclet$??1CCompDlg@@UAE@XZ$1 67d80008 f   SapClassGui.obj
 0001:fffff008       __unwindfunclet$??1CPixProDlg@@UAE@XZ$1 67d80008 f   SapClassGui.obj
 0001:fffff008       __unwindfunclet$??1CBufDlg@@UAE@XZ$1 67d80008 f   SapClassGui.obj
 0001:fffff008       __unwindfunclet$??1CLScanDlg@@UAE@XZ$1 67d80008 f   SapClassGui.obj
 0001:fffff008       __unwindfunclet$??1CAcqConfigDlg@@UAE@XZ$1 67d80008 f   SapClassGui.obj
 0001:fffff008       __ehhandler$??1CPixProIntScaleDlg@@UAE@XZ 67d80008 f   PixProIntScaleDlg.obj
 0001:fffff008       __unwindfunclet$??1CGioBidirectionalDlg@@UAE@XZ$1 67d80008 f   SapClassGui.obj
 0001:fffff008       __unwindfunclet$??1CGioInputDlg@@UAE@XZ$1 67d80008 f   SapClassGui.obj
 0001:fffff008       __ehhandler$??1CPixProWAvgDlg@@UAE@XZ 67d80008 f   PixProWAvgDlg.obj
 0001:fffff008       __unwindfunclet$??1CCamVicDlg@@UAE@XZ$1 67d80008 f   SapClassGui.obj
 0001:fffff008       __ehhandler$??1CAcqDlg@@UAE@XZ 67d80008 f   SapClassGui.obj
 0001:fffff008       __unwindfunclet$??1CGioOutputDlg@@UAE@XZ$1 67d80008 f   SapClassGui.obj
 0001:fffff012       __ehhandler$??HATL@@YA?AV?$CStringT@DV?$StrTraitMFC_DLL@DV?$ChTraitsCRT@D@ATL@@@@@0@ABV10@PBD@Z 67d80012 f   ColorConversionDlg.obj
 0001:fffff012       __ehhandler$??HATL@@YA?AV?$CStringT@DV?$StrTraitMFC_DLL@DV?$ChTraitsCRT@D@ATL@@@@@0@ABV10@0@Z 67d80012 f   BrowseDirDlg.obj
 0001:fffff012       __ehhandler$??HATL@@YA?AV?$CStringT@DV?$StrTraitMFC_DLL@DV?$ChTraitsCRT@D@ATL@@@@@0@ABV10@0@Z 67d80012 f   CamVicDlg.obj
 0001:fffff016       __unwindfunclet$??1CPixProDlg@@UAE@XZ$2 67d80016 f   SapClassGui.obj
 0001:fffff016       __unwindfunclet$??1CGioOutputDlg@@UAE@XZ$2 67d80016 f   SapClassGui.obj
 0001:fffff016       __unwindfunclet$??1CViewDlg@@UAE@XZ$2 67d80016 f   ViewDlg.obj
 0001:fffff016       __unwindfunclet$??1CGioBidirectionalDlg@@UAE@XZ$2 67d80016 f   SapClassGui.obj
 0001:fffff016       __unwindfunclet$??1CGioInputDlg@@UAE@XZ$2 67d80016 f   SapClassGui.obj
 0001:fffff016       __unwindfunclet$??1CBufDlg@@UAE@XZ$2 67d80016 f   SapClassGui.obj
 0001:fffff020       __unwindfunclet$??1CLScanDlg@@UAE@XZ$2 67d80020 f   SapClassGui.obj
 0001:fffff020       __unwindfunclet$??1CAcqConfigDlg@@UAE@XZ$2 67d80020 f   SapClassGui.obj
 0001:fffff020       __unwindfunclet$??1CCamVicDlg@@UAE@XZ$2 67d80020 f   SapClassGui.obj
 0001:fffff020       __unwindfunclet$??1CCompDlg@@UAE@XZ$2 67d80020 f   SapClassGui.obj
 0001:fffff020       __unwindfunclet$??1CAScanDlg@@UAE@XZ$2 67d80020 f   SapClassGui.obj
 0001:fffff024       __unwindfunclet$??1CGioInputDlg@@UAE@XZ$3 67d80024 f   SapClassGui.obj
 0001:fffff024       __unwindfunclet$??1CGioBidirectionalDlg@@UAE@XZ$3 67d80024 f   SapClassGui.obj
 0001:fffff024       __unwindfunclet$??1CViewDlg@@UAE@XZ$3 67d80024 f   ViewDlg.obj
 0001:fffff024       __unwindfunclet$??1CPixProDlg@@UAE@XZ$3 67d80024 f   SapClassGui.obj
 0001:fffff024       __unwindfunclet$??1CGioOutputDlg@@UAE@XZ$3 67d80024 f   SapClassGui.obj
 0001:fffff02e       __ehhandler$??1CBufDlg@@UAE@XZ 67d8002e f   SapClassGui.obj
 0001:fffff02e       __unwindfunclet$??1CCompDlg@@UAE@XZ$3 67d8002e f   SapClassGui.obj
 0001:fffff02e       __unwindfunclet$??1CCamVicDlg@@UAE@XZ$3 67d8002e f   SapClassGui.obj
 0001:fffff02e       __ehhandler$??1CAScanDlg@@UAE@XZ 67d8002e f   SapClassGui.obj
 0001:fffff02e       __unwindfunclet$??1CAcqConfigDlg@@UAE@XZ$3 67d8002e f   SapClassGui.obj
 0001:fffff02e       __ehhandler$??1CLScanDlg@@UAE@XZ 67d8002e f   SapClassGui.obj
 0001:fffff032       __ehhandler$??1CGioInputDlg@@UAE@XZ 67d80032 f   SapClassGui.obj
 0001:fffff032       __unwindfunclet$??1CGioOutputDlg@@UAE@XZ$4 67d80032 f   SapClassGui.obj
 0001:fffff032       __ehhandler$??1CGioBidirectionalDlg@@UAE@XZ 67d80032 f   SapClassGui.obj
 0001:fffff032       __unwindfunclet$??1CPixProDlg@@UAE@XZ$4 67d80032 f   SapClassGui.obj
 0001:fffff032       __ehhandler$??1CViewDlg@@UAE@XZ 67d80032 f   ViewDlg.obj
 0001:fffff03c       __unwindfunclet$??1CAcqConfigDlg@@UAE@XZ$4 67d8003c f   SapClassGui.obj
 0001:fffff03c       __unwindfunclet$??1CCompDlg@@UAE@XZ$4 67d8003c f   SapClassGui.obj
 0001:fffff03c       __unwindfunclet$??1CCamVicDlg@@UAE@XZ$4 67d8003c f   SapClassGui.obj
 0001:fffff040       __ehhandler$??1CPixProDlg@@UAE@XZ 67d80040 f   SapClassGui.obj
 0001:fffff040       __unwindfunclet$??1CGioOutputDlg@@UAE@XZ$5 67d80040 f   SapClassGui.obj
 0001:fffff04a       __unwindfunclet$??1CCompDlg@@UAE@XZ$5 67d8004a f   SapClassGui.obj
 0001:fffff04a       __unwindfunclet$??1CCamVicDlg@@UAE@XZ$5 67d8004a f   SapClassGui.obj
 0001:fffff04a       __unwindfunclet$??1CAcqConfigDlg@@UAE@XZ$5 67d8004a f   SapClassGui.obj
 0001:fffff04e       __ehhandler$??1CGioOutputDlg@@UAE@XZ 67d8004e f   SapClassGui.obj
 0001:fffff058       __ehhandler$??1CCompDlg@@UAE@XZ 67d80058 f   SapClassGui.obj
 0001:fffff058       __unwindfunclet$??1CAcqConfigDlg@@UAE@XZ$6 67d80058 f   SapClassGui.obj
 0001:fffff058       __unwindfunclet$??1CCamVicDlg@@UAE@XZ$6 67d80058 f   SapClassGui.obj
 0001:fffff066       __unwindfunclet$??1CCamVicDlg@@UAE@XZ$7 67d80066 f   SapClassGui.obj
 0001:fffff070       __ehhandler$??1CAcqConfigDlg@@UAE@XZ 67d80070 f   SapClassGui.obj
 0001:fffff074       __unwindfunclet$??1CCamVicDlg@@UAE@XZ$8 67d80074 f   SapClassGui.obj
 0001:fffff08c       __ehhandler$??1CCamVicDlg@@UAE@XZ 67d8008c f   SapClassGui.obj
 0001:00002f30       ?StringValidateDestA@@YGJPBDII@Z 67d83f30 f   AcqConfigDlg.obj
 0001:00002f60       ?StringCopyWorkerA@@YGJPADIPAIPBDI@Z 67d83f60 f   AcqConfigDlg.obj
 0001:00003010       ?StringVPrintfWorkerA@@YGJPADIPAIPBD0@Z 67d84010 f   AcqConfigDlg.obj
 0001:000043f0       ?StringValidateDestA@@YGJPBDII@Z 67d853f0 f   AcqDlg.obj
 0001:00004420       ?StringVPrintfWorkerA@@YGJPADIPAIPBD0@Z 67d85420 f   AcqDlg.obj
 0001:00005dc0       ?StringValidateDestA@@YGJPBDII@Z 67d86dc0 f   AScanDlg.obj
 0001:00005df0       ?StringVPrintfWorkerA@@YGJPADIPAIPBD0@Z 67d86df0 f   AScanDlg.obj
 0001:00007af0       ?StringValidateDestA@@YGJPBDII@Z 67d88af0 f   BrowseDirDlg.obj
 0001:00007b20       ?StringCopyWorkerA@@YGJPADIPAIPBDI@Z 67d88b20 f   BrowseDirDlg.obj
 0001:0000d0e0       ?StringValidateDestA@@YGJPBDII@Z 67d8e0e0 f   CamVicDlg.obj
 0001:0000d110       ?StringValidateDestAndLengthA@@YGJPBDIPAII@Z 67d8e110 f   CamVicDlg.obj
 0001:0000d170       ?StringLengthWorkerA@@YGJPBDIPAI@Z 67d8e170 f   CamVicDlg.obj
 0001:0000d1f0       ?StringCopyWorkerA@@YGJPADIPAIPBDI@Z 67d8e1f0 f   CamVicDlg.obj
 0001:0000d2a0       ?StringVPrintfWorkerA@@YGJPADIPAIPBD0@Z 67d8e2a0 f   CamVicDlg.obj
 0001:00018e10       ?StringValidateDestAndLengthA@@YGJPBDIPAII@Z 67d99e10 f   GioBidirectionalDlg.obj
 0001:00018e70       ?StringLengthWorkerA@@YGJPBDIPAI@Z 67d99e70 f   GioBidirectionalDlg.obj
 0001:00018ef0       ?StringValidateDestA@@YGJPBDII@Z 67d99ef0 f   GioBidirectionalDlg.obj
 0001:00018f20       ?StringCopyWorkerA@@YGJPADIPAIPBDI@Z 67d99f20 f   GioBidirectionalDlg.obj
 0001:0001a890       ?StringValidateDestAndLengthA@@YGJPBDIPAII@Z 67d9b890 f   GioInputDlg.obj
 0001:0001a8f0       ?StringLengthWorkerA@@YGJPBDIPAI@Z 67d9b8f0 f   GioInputDlg.obj
 0001:0001a970       ?StringValidateDestA@@YGJPBDII@Z 67d9b970 f   GioInputDlg.obj
 0001:0001a9a0       ?StringCopyWorkerA@@YGJPADIPAIPBDI@Z 67d9b9a0 f   GioInputDlg.obj
 0001:0001c930       ?StringValidateDestAndLengthA@@YGJPBDIPAII@Z 67d9d930 f   GioOutputDlg.obj
 0001:0001c990       ?StringLengthWorkerA@@YGJPBDIPAI@Z 67d9d990 f   GioOutputDlg.obj
 0001:0001ca10       ?StringValidateDestA@@YGJPBDII@Z 67d9da10 f   GioOutputDlg.obj
 0001:0001ca40       ?StringCopyWorkerA@@YGJPADIPAIPBDI@Z 67d9da40 f   GioOutputDlg.obj
 0001:00021ef0       ?StringValidateDestA@@YGJPBDII@Z 67da2ef0 f   LoadSaveDlg.obj
 0001:00021f20       ?StringCopyWorkerA@@YGJPADIPAIPBDI@Z 67da2f20 f   LoadSaveDlg.obj
 0001:00024590       ?StringValidateDestA@@YGJPBDII@Z 67da5590 f   LScanDlg.obj
 0001:000245c0       ?StringVPrintfWorkerA@@YGJPADIPAIPBD0@Z 67da55c0 f   LScanDlg.obj
 0001:00026760       ?StringValidateDestA@@YGJPBDII@Z 67da7760 f   PixProDlg.obj
 0001:00026790       ?StringValidateDestAndLengthA@@YGJPBDIPAII@Z 67da7790 f   PixProDlg.obj
 0001:000267f0       ?StringLengthWorkerA@@YGJPBDIPAI@Z 67da77f0 f   PixProDlg.obj
 0001:00026870       ?StringCopyWorkerA@@YGJPADIPAIPBDI@Z 67da7870 f   PixProDlg.obj
 0001:00026920       ?StringVPrintfWorkerA@@YGJPADIPAIPBD0@Z 67da7920 f   PixProDlg.obj
 0001:0002bef0       ?ArrayUnwindFilter@@YAHPAU_EXCEPTION_POINTERS@@@Z 67dacef0 f   msvcrtd:ehvecdtr.obj
 0001:0002c150       _pre_c_init                67dad150 f   msvcrtd:crtdll.obj
 0001:0002c500       ___DllMainCRTStartup       67dad500 f   msvcrtd:crtdll.obj
 0001:0002c730       ?failwithmessage@@YAXPAXHHPBD@Z 67dad730 f   msvcrtd:_error_.obj
 0001:0002c950       ?DebuggerProbe@@YAHK@Z     67dad950 f   msvcrtd:_error_.obj
 0001:0002c9e0       ?DebuggerRuntime@@YAHKHPAXPB_W@Z 67dad9e0 f   msvcrtd:_error_.obj
 0001:0002ccc0       ?_getMemBlockDataString@@YAXPAD00I@Z 67dadcc0 f   msvcrtd:_error_.obj
 0001:0002d6a0       ?GetPdbDll@@YAPAUHINSTANCE__@@XZ 67dae6a0 f   msvcrtd:_pdblkup_.obj
 0001:0002d790       ?GetPdbDllFromInstallPath@@YAPAUHINSTANCE__@@XZ 67dae790 f   msvcrtd:_pdblkup_.obj
 0001:0002d950       ?GetPdbDllPathFromFilePath@@YAHPB_WPA_WI@Z 67dae950 f   msvcrtd:_pdblkup_.obj
 0001:0002f290       ?Init@@YG_NXZ              67db0290 f   atlsd:Externs.obj
 0001:00030e40       ?ShouldTraceOutput@ATL@@YG_NKKIPAPBVCAtlTraceCategory@@PAP6AHHPBDH11ZZ@Z 67db1e40 f   atlsd:AtlDebugAPI.obj
 0001:000330c0       __unwindfunclet$??0CAcqConfigDlg@@QAE@PAVCWnd@@W4ServerCategory@0@@Z$0 67db40c0 f   AcqConfigDlg.obj
 0001:000330c8       __unwindfunclet$??0CAcqConfigDlg@@QAE@PAVCWnd@@W4ServerCategory@0@@Z$1 67db40c8 f   AcqConfigDlg.obj
 0001:000330e0       __unwindfunclet$??0CAcqConfigDlg@@QAE@PAVCWnd@@W4ServerCategory@0@@Z$2 67db40e0 f   AcqConfigDlg.obj
 0001:000330ee       __unwindfunclet$??0CAcqConfigDlg@@QAE@PAVCWnd@@W4ServerCategory@0@@Z$3 67db40ee f   AcqConfigDlg.obj
 0001:000330fc       __unwindfunclet$??0CAcqConfigDlg@@QAE@PAVCWnd@@W4ServerCategory@0@@Z$4 67db40fc f   AcqConfigDlg.obj
 0001:0003310a       __unwindfunclet$??0CAcqConfigDlg@@QAE@PAVCWnd@@W4ServerCategory@0@@Z$5 67db410a f   AcqConfigDlg.obj
 0001:00033118       __unwindfunclet$??0CAcqConfigDlg@@QAE@PAVCWnd@@W4ServerCategory@0@@Z$6 67db4118 f   AcqConfigDlg.obj
 0001:00033130       __unwindfunclet$??0CAcqConfigDlg@@QAE@PAVCWnd@@W4ServerCategory@0@@Z$8 67db4130 f   AcqConfigDlg.obj
 0001:00033148       __unwindfunclet$??0CAcqConfigDlg@@QAE@PAVCWnd@@W4ServerCategory@0@@Z$9 67db4148 f   AcqConfigDlg.obj
 0001:00033160       __unwindfunclet$??0CAcqConfigDlg@@QAE@PAVCWnd@@W4ServerCategory@0@@Z$10 67db4160 f   AcqConfigDlg.obj
 0001:00033178       __ehhandler$??0CAcqConfigDlg@@QAE@PAVCWnd@@W4ServerCategory@0@@Z 67db4178 f   AcqConfigDlg.obj
 0001:00033193       __unwindfunclet$??0CAcqConfigDlg@@QAE@PAVCWnd@@VSapLocation@@PBDW4ServerCategory@0@@Z$0 67db4193 f   AcqConfigDlg.obj
 0001:000331a5       __unwindfunclet$??0CAcqConfigDlg@@QAE@PAVCWnd@@VSapLocation@@PBDW4ServerCategory@0@@Z$1 67db41a5 f   AcqConfigDlg.obj
 0001:000331ad       __unwindfunclet$??0CAcqConfigDlg@@QAE@PAVCWnd@@VSapLocation@@PBDW4ServerCategory@0@@Z$2 67db41ad f   AcqConfigDlg.obj
 0001:000331c5       __unwindfunclet$??0CAcqConfigDlg@@QAE@PAVCWnd@@VSapLocation@@PBDW4ServerCategory@0@@Z$3 67db41c5 f   AcqConfigDlg.obj
 0001:000331d3       __unwindfunclet$??0CAcqConfigDlg@@QAE@PAVCWnd@@VSapLocation@@PBDW4ServerCategory@0@@Z$4 67db41d3 f   AcqConfigDlg.obj
 0001:000331e1       __unwindfunclet$??0CAcqConfigDlg@@QAE@PAVCWnd@@VSapLocation@@PBDW4ServerCategory@0@@Z$5 67db41e1 f   AcqConfigDlg.obj
 0001:000331ef       __unwindfunclet$??0CAcqConfigDlg@@QAE@PAVCWnd@@VSapLocation@@PBDW4ServerCategory@0@@Z$6 67db41ef f   AcqConfigDlg.obj
 0001:000331fd       __unwindfunclet$??0CAcqConfigDlg@@QAE@PAVCWnd@@VSapLocation@@PBDW4ServerCategory@0@@Z$7 67db41fd f   AcqConfigDlg.obj
 0001:00033215       __unwindfunclet$??0CAcqConfigDlg@@QAE@PAVCWnd@@VSapLocation@@PBDW4ServerCategory@0@@Z$9 67db4215 f   AcqConfigDlg.obj
 0001:0003322d       __unwindfunclet$??0CAcqConfigDlg@@QAE@PAVCWnd@@VSapLocation@@PBDW4ServerCategory@0@@Z$10 67db422d f   AcqConfigDlg.obj
 0001:00033245       __unwindfunclet$??0CAcqConfigDlg@@QAE@PAVCWnd@@VSapLocation@@PBDW4ServerCategory@0@@Z$11 67db4245 f   AcqConfigDlg.obj
 0001:0003325d       __unwindfunclet$??0CAcqConfigDlg@@QAE@PAVCWnd@@VSapLocation@@PBDW4ServerCategory@0@@Z$13 67db425d f   AcqConfigDlg.obj
 0001:0003326f       __ehhandler$??0CAcqConfigDlg@@QAE@PAVCWnd@@VSapLocation@@PBDW4ServerCategory@0@@Z 67db426f f   AcqConfigDlg.obj
 0001:00033294       __unwindfunclet$??0CAcqConfigDlg@@QAE@PAVCWnd@@PAVSapAcquisition@@PBD@Z$0 67db4294 f   AcqConfigDlg.obj
 0001:0003329c       __unwindfunclet$??0CAcqConfigDlg@@QAE@PAVCWnd@@PAVSapAcquisition@@PBD@Z$1 67db429c f   AcqConfigDlg.obj
 0001:000332b4       __unwindfunclet$??0CAcqConfigDlg@@QAE@PAVCWnd@@PAVSapAcquisition@@PBD@Z$2 67db42b4 f   AcqConfigDlg.obj
 0001:000332c2       __unwindfunclet$??0CAcqConfigDlg@@QAE@PAVCWnd@@PAVSapAcquisition@@PBD@Z$3 67db42c2 f   AcqConfigDlg.obj
 0001:000332d0       __unwindfunclet$??0CAcqConfigDlg@@QAE@PAVCWnd@@PAVSapAcquisition@@PBD@Z$4 67db42d0 f   AcqConfigDlg.obj
 0001:000332de       __unwindfunclet$??0CAcqConfigDlg@@QAE@PAVCWnd@@PAVSapAcquisition@@PBD@Z$5 67db42de f   AcqConfigDlg.obj
 0001:000332ec       __unwindfunclet$??0CAcqConfigDlg@@QAE@PAVCWnd@@PAVSapAcquisition@@PBD@Z$6 67db42ec f   AcqConfigDlg.obj
 0001:00033304       __unwindfunclet$??0CAcqConfigDlg@@QAE@PAVCWnd@@PAVSapAcquisition@@PBD@Z$8 67db4304 f   AcqConfigDlg.obj
 0001:0003331c       __unwindfunclet$??0CAcqConfigDlg@@QAE@PAVCWnd@@PAVSapAcquisition@@PBD@Z$9 67db431c f   AcqConfigDlg.obj
 0001:00033334       __unwindfunclet$??0CAcqConfigDlg@@QAE@PAVCWnd@@PAVSapAcquisition@@PBD@Z$10 67db4334 f   AcqConfigDlg.obj
 0001:0003334c       __unwindfunclet$??0CAcqConfigDlg@@QAE@PAVCWnd@@PAVSapAcquisition@@PBD@Z$12 67db434c f   AcqConfigDlg.obj
 0001:0003335e       __unwindfunclet$??0CAcqConfigDlg@@QAE@PAVCWnd@@PAVSapAcquisition@@PBD@Z$13 67db435e f   AcqConfigDlg.obj
 0001:00033370       __ehhandler$??0CAcqConfigDlg@@QAE@PAVCWnd@@PAVSapAcquisition@@PBD@Z 67db4370 f   AcqConfigDlg.obj
 0001:00033398       __unwindfunclet$?GetLocation@CAcqConfigDlg@@QAE?AVSapLocation@@XZ$0 67db4398 f   AcqConfigDlg.obj
 0001:000333aa       __ehhandler$?GetLocation@CAcqConfigDlg@@QAE?AVSapLocation@@XZ 67db43aa f   AcqConfigDlg.obj
 0001:000333c5       __unwindfunclet$?UpdateAcquisition@CAcqConfigDlg@@IAEHXZ$0 67db43c5 f   AcqConfigDlg.obj
 0001:000333d7       __unwindfunclet$?UpdateAcquisition@CAcqConfigDlg@@IAEHXZ$1 67db43d7 f   AcqConfigDlg.obj
 0001:000333e9       __unwindfunclet$?UpdateAcquisition@CAcqConfigDlg@@IAEHXZ$3 67db43e9 f   AcqConfigDlg.obj
 0001:000333fb       __ehhandler$?UpdateAcquisition@CAcqConfigDlg@@IAEHXZ 67db43fb f   AcqConfigDlg.obj
 0001:00033420       __unwindfunclet$?LoadSettings@CAcqConfigDlg@@IAEXXZ$0 67db4420 f   AcqConfigDlg.obj
 0001:00033432       __unwindfunclet$?LoadSettings@CAcqConfigDlg@@IAEXXZ$1 67db4432 f   AcqConfigDlg.obj
 0001:00033444       __unwindfunclet$?LoadSettings@CAcqConfigDlg@@IAEXXZ$2 67db4444 f   AcqConfigDlg.obj
 0001:00033456       __unwindfunclet$?LoadSettings@CAcqConfigDlg@@IAEXXZ$3 67db4456 f   AcqConfigDlg.obj
 0001:00033468       __unwindfunclet$?LoadSettings@CAcqConfigDlg@@IAEXXZ$4 67db4468 f   AcqConfigDlg.obj
 0001:0003347a       __unwindfunclet$?LoadSettings@CAcqConfigDlg@@IAEXXZ$5 67db447a f   AcqConfigDlg.obj
 0001:0003348c       __unwindfunclet$?LoadSettings@CAcqConfigDlg@@IAEXXZ$6 67db448c f   AcqConfigDlg.obj
 0001:0003349e       __ehhandler$?LoadSettings@CAcqConfigDlg@@IAEXXZ 67db449e f   AcqConfigDlg.obj
 0001:000334b9       __unwindfunclet$?SaveSettings@CAcqConfigDlg@@IAEXXZ$0 67db44b9 f   AcqConfigDlg.obj
 0001:000334cb       __unwindfunclet$?SaveSettings@CAcqConfigDlg@@IAEXXZ$1 67db44cb f   AcqConfigDlg.obj
 0001:000334dd       __ehhandler$?SaveSettings@CAcqConfigDlg@@IAEXXZ 67db44dd f   AcqConfigDlg.obj
 0001:000334f8       __unwindfunclet$?OnInitDialog@CAcqConfigDlg@@MAEHXZ$0 67db44f8 f   AcqConfigDlg.obj
 0001:0003350a       __ehhandler$?OnInitDialog@CAcqConfigDlg@@MAEHXZ 67db450a f   AcqConfigDlg.obj
 0001:00033525       __unwindfunclet$?InitServerCombo@CAcqConfigDlg@@IAEXXZ$0 67db4525 f   AcqConfigDlg.obj
 0001:0003353a       __unwindfunclet$?InitServerCombo@CAcqConfigDlg@@IAEXXZ$1 67db453a f   AcqConfigDlg.obj
 0001:0003354f       __ehhandler$?InitServerCombo@CAcqConfigDlg@@IAEXXZ 67db454f f   AcqConfigDlg.obj
 0001:00033577       __unwindfunclet$?InitResourceCombo@CAcqConfigDlg@@IAEXXZ$0 67db4577 f   AcqConfigDlg.obj
 0001:0003358c       __unwindfunclet$?InitResourceCombo@CAcqConfigDlg@@IAEXXZ$1 67db458c f   AcqConfigDlg.obj
 0001:000335a1       __unwindfunclet$?InitResourceCombo@CAcqConfigDlg@@IAEXXZ$2 67db45a1 f   AcqConfigDlg.obj
 0001:000335b6       __unwindfunclet$?InitResourceCombo@CAcqConfigDlg@@IAEXXZ$3 67db45b6 f   AcqConfigDlg.obj
 0001:000335cb       __unwindfunclet$?InitResourceCombo@CAcqConfigDlg@@IAEXXZ$4 67db45cb f   AcqConfigDlg.obj
 0001:000335e0       __unwindfunclet$?InitResourceCombo@CAcqConfigDlg@@IAEXXZ$5 67db45e0 f   AcqConfigDlg.obj
 0001:000335f5       __unwindfunclet$?InitResourceCombo@CAcqConfigDlg@@IAEXXZ$6 67db45f5 f   AcqConfigDlg.obj
 0001:0003360a       __unwindfunclet$?InitResourceCombo@CAcqConfigDlg@@IAEXXZ$7 67db460a f   AcqConfigDlg.obj
 0001:0003361f       __ehhandler$?InitResourceCombo@CAcqConfigDlg@@IAEXXZ 67db461f f   AcqConfigDlg.obj
 0001:00033647       __unwindfunclet$?OnConfigBrowse@CAcqConfigDlg@@IAEXXZ$0 67db4647 f   AcqConfigDlg.obj
 0001:00033652       __unwindfunclet$?OnConfigBrowse@CAcqConfigDlg@@IAEXXZ$1 67db4652 f   AcqConfigDlg.obj
 0001:00033667       __unwindfunclet$?OnConfigBrowse@CAcqConfigDlg@@IAEXXZ$2 67db4667 f   AcqConfigDlg.obj
 0001:0003367c       __ehhandler$?OnConfigBrowse@CAcqConfigDlg@@IAEXXZ 67db467c f   AcqConfigDlg.obj
 0001:000336a4       __unwindfunclet$?UpdateDescription@CAcqConfigDlg@@IAEXXZ$0 67db46a4 f   AcqConfigDlg.obj
 0001:000336b9       __unwindfunclet$?UpdateDescription@CAcqConfigDlg@@IAEXXZ$5 67db46b9 f   AcqConfigDlg.obj
 0001:000336ce       __ehhandler$?UpdateDescription@CAcqConfigDlg@@IAEXXZ 67db46ce f   AcqConfigDlg.obj
 0001:000336f6       __unwindfunclet$?ValidateCCFAgainstServerName@CAcqConfigDlg@@IAE_N_N@Z$0 67db46f6 f   AcqConfigDlg.obj
 0001:00033708       __unwindfunclet$?ValidateCCFAgainstServerName@CAcqConfigDlg@@IAE_N_N@Z$1 67db4708 f   AcqConfigDlg.obj
 0001:0003371a       __unwindfunclet$?ValidateCCFAgainstServerName@CAcqConfigDlg@@IAE_N_N@Z$2 67db471a f   AcqConfigDlg.obj
 0001:0003372c       __ehhandler$?ValidateCCFAgainstServerName@CAcqConfigDlg@@IAE_N_N@Z 67db472c f   AcqConfigDlg.obj
 0001:00033751       __unwindfunclet$?GetConfigFile@CAcqConfigDlg@@QAEPADXZ$0 67db4751 f   AcqConfigDlg.obj
 0001:00033774       __ehhandler$?GetConfigFile@CAcqConfigDlg@@QAEPADXZ 67db4774 f   AcqConfigDlg.obj
 0001:00033790       __unwindfunclet$??HATL@@YA?AV?$CStringT@DV?$StrTraitMFC_DLL@DV?$ChTraitsCRT@D@ATL@@@@@0@ABV10@0@Z$0 67db4790 f   AcqConfigDlg.obj
 0001:000337a2       __ehhandler$??HATL@@YA?AV?$CStringT@DV?$StrTraitMFC_DLL@DV?$ChTraitsCRT@D@ATL@@@@@0@ABV10@0@Z 67db47a2 f   AcqConfigDlg.obj
 0001:000337c0       __unwindfunclet$??1CAcqConfigDlg@@UAE@XZ$0 67db47c0 f   AcqConfigDlg.obj
 0001:000337c8       __unwindfunclet$??1CAcqConfigDlg@@UAE@XZ$1 67db47c8 f   AcqConfigDlg.obj
 0001:000337e0       __unwindfunclet$??1CAcqConfigDlg@@UAE@XZ$2 67db47e0 f   AcqConfigDlg.obj
 0001:000337ee       __unwindfunclet$??1CAcqConfigDlg@@UAE@XZ$3 67db47ee f   AcqConfigDlg.obj
 0001:000337fc       __unwindfunclet$??1CAcqConfigDlg@@UAE@XZ$4 67db47fc f   AcqConfigDlg.obj
 0001:0003380a       __unwindfunclet$??1CAcqConfigDlg@@UAE@XZ$5 67db480a f   AcqConfigDlg.obj
 0001:00033818       __unwindfunclet$??1CAcqConfigDlg@@UAE@XZ$6 67db4818 f   AcqConfigDlg.obj
 0001:00033830       __ehhandler$??1CAcqConfigDlg@@UAE@XZ 67db4830 f   AcqConfigDlg.obj
 0001:00033850       __unwindfunclet$??0CAcqDlg@@QAE@PAVCWnd@@PAVSapAcquisition@@@Z$0 67db4850 f   AcqDlg.obj
 0001:00033858       __ehhandler$??0CAcqDlg@@QAE@PAVCWnd@@PAVSapAcquisition@@@Z 67db4858 f   AcqDlg.obj
 0001:00033873       __unwindfunclet$?OnInitDialog@CAcqDlg@@MAEHXZ$0 67db4873 f   AcqDlg.obj
 0001:00033888       __ehhandler$?OnInitDialog@CAcqDlg@@MAEHXZ 67db4888 f   AcqDlg.obj
 0001:000338b0       __unwindfunclet$??1CAcqDlg@@UAE@XZ$0 67db48b0 f   AcqDlg.obj
 0001:000338b8       __ehhandler$??1CAcqDlg@@UAE@XZ 67db48b8 f   AcqDlg.obj
 0001:000338e0       __unwindfunclet$??0CAScanDlg@@QAE@PAVCWnd@@PAVSapAcquisition@@@Z$0 67db48e0 f   AScanDlg.obj
 0001:000338e8       __unwindfunclet$??0CAScanDlg@@QAE@PAVCWnd@@PAVSapAcquisition@@@Z$1 67db48e8 f   AScanDlg.obj
 0001:00033900       __unwindfunclet$??0CAScanDlg@@QAE@PAVCWnd@@PAVSapAcquisition@@@Z$2 67db4900 f   AScanDlg.obj
 0001:0003390e       __ehhandler$??0CAScanDlg@@QAE@PAVCWnd@@PAVSapAcquisition@@@Z 67db490e f   AScanDlg.obj
 0001:00033929       __unwindfunclet$?VerifyTimeIntegrateDuration@CAScanDlg@@IAEXH@Z$0 67db4929 f   AScanDlg.obj
 0001:0003393e       __ehhandler$?VerifyTimeIntegrateDuration@CAScanDlg@@IAEXH@Z 67db493e f   AScanDlg.obj
 0001:00033966       __unwindfunclet$?VerifyFrameIntegrateCount@CAScanDlg@@IAEXXZ$0 67db4966 f   AScanDlg.obj
 0001:0003397b       __ehhandler$?VerifyFrameIntegrateCount@CAScanDlg@@IAEXXZ 67db497b f   AScanDlg.obj
 0001:000339b0       __unwindfunclet$??1CAScanDlg@@UAE@XZ$0 67db49b0 f   AScanDlg.obj
 0001:000339b8       __unwindfunclet$??1CAScanDlg@@UAE@XZ$1 67db49b8 f   AScanDlg.obj
 0001:000339d0       __unwindfunclet$??1CAScanDlg@@UAE@XZ$2 67db49d0 f   AScanDlg.obj
 0001:000339de       __ehhandler$??1CAScanDlg@@UAE@XZ 67db49de f   AScanDlg.obj
 0001:00033a00       __unwindfunclet$??0CAviFileDlg@@QAE@PAVCWnd@@HHHH@Z$0 67db4a00 f   AviFileDlg.obj
 0001:00033a08       __ehhandler$??0CAviFileDlg@@QAE@PAVCWnd@@HHHH@Z 67db4a08 f   AviFileDlg.obj
 0001:00033a30       __unwindfunclet$??0CBayerOptionsDlg@@QAE@PAVCWnd@@PAVSapBayer@@PAVSapTransfer@@PAVCImageWnd@@PAVSapProcessing@@@Z$0 67db4a30 f   BayerDlg.obj
 0001:00033a38       __ehhandler$??0CBayerOptionsDlg@@QAE@PAVCWnd@@PAVSapBayer@@PAVSapTransfer@@PAVCImageWnd@@PAVSapProcessing@@@Z 67db4a38 f   BayerDlg.obj
 0001:00033a53       __unwindfunclet$??1CBayerOptionsDlg@@UAE@XZ$0 67db4a53 f   BayerDlg.obj
 0001:00033a5b       __ehhandler$??1CBayerOptionsDlg@@UAE@XZ 67db4a5b f   BayerDlg.obj
 0001:00033a76       __unwindfunclet$?UpdateInterface@CBayerOptionsDlg@@QAEXXZ$0 67db4a76 f   BayerDlg.obj
 0001:00033a88       __ehhandler$?UpdateInterface@CBayerOptionsDlg@@QAEXXZ 67db4a88 f   BayerDlg.obj
 0001:00033aad       __unwindfunclet$?OnApply@CBayerOptionsDlg@@IAEXXZ$1 67db4aad f   BayerDlg.obj
 0001:00033abf       __ehhandler$?OnApply@CBayerOptionsDlg@@IAEXXZ 67db4abf f   BayerDlg.obj
 0001:00033af0       __unwindfunclet$??0CBrowseDirDlg@@QAE@PBD@Z$0 67db4af0 f   BrowseDirDlg.obj
 0001:00033b02       __ehhandler$??0CBrowseDirDlg@@QAE@PBD@Z 67db4b02 f   BrowseDirDlg.obj
 0001:00033b1d       __unwindfunclet$?DoModal@CBrowseDirDlg@@QAEHXZ$0 67db4b1d f   BrowseDirDlg.obj
 0001:00033b32       __unwindfunclet$?DoModal@CBrowseDirDlg@@QAEHXZ$1 67db4b32 f   BrowseDirDlg.obj
 0001:00033b47       __unwindfunclet$?DoModal@CBrowseDirDlg@@QAEHXZ$2 67db4b47 f   BrowseDirDlg.obj
 0001:00033b5c       __unwindfunclet$?DoModal@CBrowseDirDlg@@QAEHXZ$3 67db4b5c f   BrowseDirDlg.obj
 0001:00033b71       __unwindfunclet$?DoModal@CBrowseDirDlg@@QAEHXZ$4 67db4b71 f   BrowseDirDlg.obj
 0001:00033b86       __ehhandler$?DoModal@CBrowseDirDlg@@QAEHXZ 67db4b86 f   BrowseDirDlg.obj
 0001:00033bb0       __unwindfunclet$??HATL@@YA?AV?$CStringT@DV?$StrTraitMFC_DLL@DV?$ChTraitsCRT@D@ATL@@@@@0@ABV10@D@Z$0 67db4bb0 f   BrowseDirDlg.obj
 0001:00033bc2       __ehhandler$??HATL@@YA?AV?$CStringT@DV?$StrTraitMFC_DLL@DV?$ChTraitsCRT@D@ATL@@@@@0@ABV10@D@Z 67db4bc2 f   BrowseDirDlg.obj
 0001:00033be0       __unwindfunclet$??0CBufDlg@@QAE@PAVCWnd@@PAVSapBuffer@@PAVSapDisplay@@@Z$0 67db4be0 f   BufDlg.obj
 0001:00033be8       __unwindfunclet$??0CBufDlg@@QAE@PAVCWnd@@PAVSapBuffer@@PAVSapDisplay@@@Z$1 67db4be8 f   BufDlg.obj
 0001:00033bf6       __unwindfunclet$??0CBufDlg@@QAE@PAVCWnd@@PAVSapBuffer@@PAVSapDisplay@@@Z$3 67db4bf6 f   BufDlg.obj
 0001:00033c0e       __unwindfunclet$??0CBufDlg@@QAE@PAVCWnd@@PAVSapBuffer@@PAVSapDisplay@@@Z$4 67db4c0e f   BufDlg.obj
 0001:00033c26       __unwindfunclet$??0CBufDlg@@QAE@PAVCWnd@@PAVSapBuffer@@PAVSapDisplay@@@Z$6 67db4c26 f   BufDlg.obj
 0001:00033c3b       __ehhandler$??0CBufDlg@@QAE@PAVCWnd@@PAVSapBuffer@@PAVSapDisplay@@@Z 67db4c3b f   BufDlg.obj
 0001:00033c63       __unwindfunclet$?OnInitDialog@CBufDlg@@MAEHXZ$0 67db4c63 f   BufDlg.obj
 0001:00033c75       __ehhandler$?OnInitDialog@CBufDlg@@MAEHXZ 67db4c75 f   BufDlg.obj
 0001:00033c90       __unwindfunclet$??1CBufDlg@@UAE@XZ$0 67db4c90 f   BufDlg.obj
 0001:00033c98       __unwindfunclet$??1CBufDlg@@UAE@XZ$1 67db4c98 f   BufDlg.obj
 0001:00033ca6       __unwindfunclet$??1CBufDlg@@UAE@XZ$2 67db4ca6 f   BufDlg.obj
 0001:00033cbe       __ehhandler$??1CBufDlg@@UAE@XZ 67db4cbe f   BufDlg.obj
 0001:00033ce0       __unwindfunclet$??0CCabDlg@@QAE@PAVCWnd@@PAVSapCab@@PAVSapXferNode@@H@Z$0 67db4ce0 f   CabDlg.obj
 0001:00033ce8       __unwindfunclet$??0CCabDlg@@QAE@PAVCWnd@@PAVSapCab@@PAVSapXferNode@@H@Z$1 67db4ce8 f   CabDlg.obj
 0001:00033d00       __unwindfunclet$??0CCabDlg@@QAE@PAVCWnd@@PAVSapCab@@PAVSapXferNode@@H@Z$2 67db4d00 f   CabDlg.obj
 0001:00033d0e       __unwindfunclet$??0CCabDlg@@QAE@PAVCWnd@@PAVSapCab@@PAVSapXferNode@@H@Z$3 67db4d0e f   CabDlg.obj
 0001:00033d20       __unwindfunclet$??0CCabDlg@@QAE@PAVCWnd@@PAVSapCab@@PAVSapXferNode@@H@Z$4 67db4d20 f   CabDlg.obj
 0001:00033d32       __unwindfunclet$??0CCabDlg@@QAE@PAVCWnd@@PAVSapCab@@PAVSapXferNode@@H@Z$5 67db4d32 f   CabDlg.obj
 0001:00033d46       __ehhandler$??0CCabDlg@@QAE@PAVCWnd@@PAVSapCab@@PAVSapXferNode@@H@Z 67db4d46 f   CabDlg.obj
 0001:00033d6e       __unwindfunclet$??1CCabDlg@@UAE@XZ$0 67db4d6e f   CabDlg.obj
 0001:00033d76       __unwindfunclet$??1CCabDlg@@UAE@XZ$1 67db4d76 f   CabDlg.obj
 0001:00033d8e       __unwindfunclet$??1CCabDlg@@UAE@XZ$2 67db4d8e f   CabDlg.obj
 0001:00033d9c       __ehhandler$??1CCabDlg@@UAE@XZ 67db4d9c f   CabDlg.obj
 0001:00033db7       __unwindfunclet$?OnInitDialog@CCabDlg@@MAEHXZ$0 67db4db7 f   CabDlg.obj
 0001:00033dc9       __unwindfunclet$?OnInitDialog@CCabDlg@@MAEHXZ$1 67db4dc9 f   CabDlg.obj
 0001:00033ddb       __ehhandler$?OnInitDialog@CCabDlg@@MAEHXZ 67db4ddb f   CabDlg.obj
 0001:00033df6       __unwindfunclet$?OnOK@CCabDlg@@MAEXXZ$0 67db4df6 f   CabDlg.obj
 0001:00033e08       __ehhandler$?OnOK@CCabDlg@@MAEXXZ 67db4e08 f   CabDlg.obj
 0001:00033e30       __unwindfunclet$??0CCamVicDlg@@QAE@PAVCWnd@@PAVSapAcquisition@@PBD@Z$0 67db4e30 f   CamVicDlg.obj
 0001:00033e38       __unwindfunclet$??0CCamVicDlg@@QAE@PAVCWnd@@PAVSapAcquisition@@PBD@Z$1 67db4e38 f   CamVicDlg.obj
 0001:00033e50       __unwindfunclet$??0CCamVicDlg@@QAE@PAVCWnd@@PAVSapAcquisition@@PBD@Z$2 67db4e50 f   CamVicDlg.obj
 0001:00033e5e       __unwindfunclet$??0CCamVicDlg@@QAE@PAVCWnd@@PAVSapAcquisition@@PBD@Z$3 67db4e5e f   CamVicDlg.obj
 0001:00033e6c       __unwindfunclet$??0CCamVicDlg@@QAE@PAVCWnd@@PAVSapAcquisition@@PBD@Z$4 67db4e6c f   CamVicDlg.obj
 0001:00033e7a       __unwindfunclet$??0CCamVicDlg@@QAE@PAVCWnd@@PAVSapAcquisition@@PBD@Z$5 67db4e7a f   CamVicDlg.obj
 0001:00033e88       __unwindfunclet$??0CCamVicDlg@@QAE@PAVCWnd@@PAVSapAcquisition@@PBD@Z$6 67db4e88 f   CamVicDlg.obj
 0001:00033e96       __unwindfunclet$??0CCamVicDlg@@QAE@PAVCWnd@@PAVSapAcquisition@@PBD@Z$7 67db4e96 f   CamVicDlg.obj
 0001:00033ea4       __unwindfunclet$??0CCamVicDlg@@QAE@PAVCWnd@@PAVSapAcquisition@@PBD@Z$8 67db4ea4 f   CamVicDlg.obj
 0001:00033ebc       __unwindfunclet$??0CCamVicDlg@@QAE@PAVCWnd@@PAVSapAcquisition@@PBD@Z$10 67db4ebc f   CamVicDlg.obj
 0001:00033ed4       __unwindfunclet$??0CCamVicDlg@@QAE@PAVCWnd@@PAVSapAcquisition@@PBD@Z$11 67db4ed4 f   CamVicDlg.obj
 0001:00033eec       __unwindfunclet$??0CCamVicDlg@@QAE@PAVCWnd@@PAVSapAcquisition@@PBD@Z$13 67db4eec f   CamVicDlg.obj
 0001:00033efe       __unwindfunclet$??0CCamVicDlg@@QAE@PAVCWnd@@PAVSapAcquisition@@PBD@Z$14 67db4efe f   CamVicDlg.obj
 0001:00033f10       __unwindfunclet$??0CCamVicDlg@@QAE@PAVCWnd@@PAVSapAcquisition@@PBD@Z$15 67db4f10 f   CamVicDlg.obj
 0001:00033f22       __ehhandler$??0CCamVicDlg@@QAE@PAVCWnd@@PAVSapAcquisition@@PBD@Z 67db4f22 f   CamVicDlg.obj
 0001:00033f4a       __unwindfunclet$?UpdateAcquisition@CCamVicDlg@@IAEHXZ$0 67db4f4a f   CamVicDlg.obj
 0001:00033f5c       __unwindfunclet$?UpdateAcquisition@CCamVicDlg@@IAEHXZ$1 67db4f5c f   CamVicDlg.obj
 0001:00033f6e       __unwindfunclet$?UpdateAcquisition@CCamVicDlg@@IAEHXZ$3 67db4f6e f   CamVicDlg.obj
 0001:00033f80       __unwindfunclet$?UpdateAcquisition@CCamVicDlg@@IAEHXZ$4 67db4f80 f   CamVicDlg.obj
 0001:00033f92       __ehhandler$?UpdateAcquisition@CCamVicDlg@@IAEHXZ 67db4f92 f   CamVicDlg.obj
 0001:00033fb7       __unwindfunclet$?LoadSettings@CCamVicDlg@@IAEXXZ$0 67db4fb7 f   CamVicDlg.obj
 0001:00033fc9       __unwindfunclet$?LoadSettings@CCamVicDlg@@IAEXXZ$1 67db4fc9 f   CamVicDlg.obj
 0001:00033fdb       __unwindfunclet$?LoadSettings@CCamVicDlg@@IAEXXZ$2 67db4fdb f   CamVicDlg.obj
 0001:00033fed       __unwindfunclet$?LoadSettings@CCamVicDlg@@IAEXXZ$3 67db4fed f   CamVicDlg.obj
 0001:00033fff       __ehhandler$?LoadSettings@CCamVicDlg@@IAEXXZ 67db4fff f   CamVicDlg.obj
 0001:0003401a       __unwindfunclet$?SetDirectories@CCamVicDlg@@IAEXXZ$0 67db501a f   CamVicDlg.obj
 0001:0003402f       __ehhandler$?SetDirectories@CCamVicDlg@@IAEXXZ 67db502f f   CamVicDlg.obj
 0001:00034057       __unwindfunclet$?InitServerCombo@CCamVicDlg@@IAEXXZ$0 67db5057 f   CamVicDlg.obj
 0001:0003406c       __ehhandler$?InitServerCombo@CCamVicDlg@@IAEXXZ 67db506c f   CamVicDlg.obj
 0001:00034094       __unwindfunclet$?InitResourceCombo@CCamVicDlg@@IAEXXZ$0 67db5094 f   CamVicDlg.obj
 0001:000340a9       __unwindfunclet$?InitResourceCombo@CCamVicDlg@@IAEXXZ$1 67db50a9 f   CamVicDlg.obj
 0001:000340be       __unwindfunclet$?InitResourceCombo@CCamVicDlg@@IAEXXZ$2 67db50be f   CamVicDlg.obj
 0001:000340d3       __ehhandler$?InitResourceCombo@CCamVicDlg@@IAEXXZ 67db50d3 f   CamVicDlg.obj
 0001:000340fb       __unwindfunclet$?OnCamBrowse@CCamVicDlg@@IAEXXZ$0 67db50fb f   CamVicDlg.obj
 0001:0003410d       __unwindfunclet$?OnCamBrowse@CCamVicDlg@@IAEXXZ$1 67db510d f   CamVicDlg.obj
 0001:00034115       __unwindfunclet$?OnCamBrowse@CCamVicDlg@@IAEXXZ$2 67db5115 f   CamVicDlg.obj
 0001:00034127       __ehhandler$?OnCamBrowse@CCamVicDlg@@IAEXXZ 67db5127 f   CamVicDlg.obj
 0001:00034142       __unwindfunclet$?OnVicBrowse@CCamVicDlg@@IAEXXZ$0 67db5142 f   CamVicDlg.obj
 0001:00034154       __unwindfunclet$?OnVicBrowse@CCamVicDlg@@IAEXXZ$1 67db5154 f   CamVicDlg.obj
 0001:0003415c       __unwindfunclet$?OnVicBrowse@CCamVicDlg@@IAEXXZ$2 67db515c f   CamVicDlg.obj
 0001:0003416e       __ehhandler$?OnVicBrowse@CCamVicDlg@@IAEXXZ 67db516e f   CamVicDlg.obj
 0001:00034189       __unwindfunclet$?UpdateNames@CCamVicDlg@@IAEXH@Z$0 67db5189 f   CamVicDlg.obj
 0001:0003419b       __ehhandler$?UpdateNames@CCamVicDlg@@IAEXH@Z 67db519b f   CamVicDlg.obj
 0001:000341b9       __unwindfunclet$?MakeVicAvailable@CCamVicDlg@@IAEHXZ$1 67db51b9 f   CamVicDlg.obj
 0001:000341e5       __ehhandler$?MakeVicAvailable@CCamVicDlg@@IAEHXZ 67db51e5 f   CamVicDlg.obj
 0001:0003420d       __unwindfunclet$?OnGenerateVic@CCamVicDlg@@IAEXXZ$0 67db520d f   CamVicDlg.obj
 0001:0003421f       __unwindfunclet$?OnGenerateVic@CCamVicDlg@@IAEXXZ$1 67db521f f   CamVicDlg.obj
 0001:00034231       __unwindfunclet$?OnGenerateVic@CCamVicDlg@@IAEXXZ$2 67db5231 f   CamVicDlg.obj
 0001:00034243       __unwindfunclet$?OnGenerateVic@CCamVicDlg@@IAEXXZ$3 67db5243 f   CamVicDlg.obj
 0001:00034258       __unwindfunclet$?OnGenerateVic@CCamVicDlg@@IAEXXZ$4 67db5258 f   CamVicDlg.obj
 0001:0003426d       __unwindfunclet$?OnGenerateVic@CCamVicDlg@@IAEXXZ$5 67db526d f   CamVicDlg.obj
 0001:00034282       __unwindfunclet$?OnGenerateVic@CCamVicDlg@@IAEXXZ$6 67db5282 f   CamVicDlg.obj
 0001:00034297       __unwindfunclet$?OnGenerateVic@CCamVicDlg@@IAEXXZ$7 67db5297 f   CamVicDlg.obj
 0001:000342ac       __unwindfunclet$?OnGenerateVic@CCamVicDlg@@IAEXXZ$8 67db52ac f   CamVicDlg.obj
 0001:000342c1       __unwindfunclet$?OnGenerateVic@CCamVicDlg@@IAEXXZ$9 67db52c1 f   CamVicDlg.obj
 0001:000342d6       __unwindfunclet$?OnGenerateVic@CCamVicDlg@@IAEXXZ$10 67db52d6 f   CamVicDlg.obj
 0001:000342eb       __unwindfunclet$?OnGenerateVic@CCamVicDlg@@IAEXXZ$11 67db52eb f   CamVicDlg.obj
 0001:00034300       __unwindfunclet$?OnGenerateVic@CCamVicDlg@@IAEXXZ$12 67db5300 f   CamVicDlg.obj
 0001:00034315       __unwindfunclet$?OnGenerateVic@CCamVicDlg@@IAEXXZ$13 67db5315 f   CamVicDlg.obj
 0001:0003432a       __unwindfunclet$?OnGenerateVic@CCamVicDlg@@IAEXXZ$14 67db532a f   CamVicDlg.obj
 0001:0003433f       __unwindfunclet$?OnGenerateVic@CCamVicDlg@@IAEXXZ$15 67db533f f   CamVicDlg.obj
 0001:00034354       __unwindfunclet$?OnGenerateVic@CCamVicDlg@@IAEXXZ$16 67db5354 f   CamVicDlg.obj
 0001:00034369       __unwindfunclet$?OnGenerateVic@CCamVicDlg@@IAEXXZ$17 67db5369 f   CamVicDlg.obj
 0001:0003437b       __ehhandler$?OnGenerateVic@CCamVicDlg@@IAEXXZ 67db537b f   CamVicDlg.obj
 0001:000343a0       __unwindfunclet$??HATL@@YA?AV?$CStringT@DV?$StrTraitMFC_DLL@DV?$ChTraitsCRT@D@ATL@@@@@0@ABV10@PBD@Z$0 67db53a0 f   CamVicDlg.obj
 0001:000343b2       __ehhandler$??HATL@@YA?AV?$CStringT@DV?$StrTraitMFC_DLL@DV?$ChTraitsCRT@D@ATL@@@@@0@ABV10@PBD@Z 67db53b2 f   CamVicDlg.obj
 0001:000343d0       __unwindfunclet$??1CCamVicDlg@@UAE@XZ$0 67db53d0 f   CamVicDlg.obj
 0001:000343d8       __unwindfunclet$??1CCamVicDlg@@UAE@XZ$1 67db53d8 f   CamVicDlg.obj
 0001:000343f0       __unwindfunclet$??1CCamVicDlg@@UAE@XZ$2 67db53f0 f   CamVicDlg.obj
 0001:000343fe       __unwindfunclet$??1CCamVicDlg@@UAE@XZ$3 67db53fe f   CamVicDlg.obj
 0001:0003440c       __unwindfunclet$??1CCamVicDlg@@UAE@XZ$4 67db540c f   CamVicDlg.obj
 0001:0003441a       __unwindfunclet$??1CCamVicDlg@@UAE@XZ$5 67db541a f   CamVicDlg.obj
 0001:00034428       __unwindfunclet$??1CCamVicDlg@@UAE@XZ$6 67db5428 f   CamVicDlg.obj
 0001:00034436       __unwindfunclet$??1CCamVicDlg@@UAE@XZ$7 67db5436 f   CamVicDlg.obj
 0001:00034444       __unwindfunclet$??1CCamVicDlg@@UAE@XZ$8 67db5444 f   CamVicDlg.obj
 0001:0003445c       __ehhandler$??1CCamVicDlg@@UAE@XZ 67db545c f   CamVicDlg.obj
 0001:00034480       __unwindfunclet$??0CColorConversionOptionsDlg@@QAE@PAVCWnd@@PAVSapColorConversion@@PAVSapTransfer@@PAVCImageWnd@@PAVSapProcessing@@@Z$0 67db5480 f   ColorConversionDlg.obj
 0001:00034488       __ehhandler$??0CColorConversionOptionsDlg@@QAE@PAVCWnd@@PAVSapColorConversion@@PAVSapTransfer@@PAVCImageWnd@@PAVSapProcessing@@@Z 67db5488 f   ColorConversionDlg.obj
 0001:000344a3       __unwindfunclet$??1CColorConversionOptionsDlg@@UAE@XZ$0 67db54a3 f   ColorConversionDlg.obj
 0001:000344ab       __ehhandler$??1CColorConversionOptionsDlg@@UAE@XZ 67db54ab f   ColorConversionDlg.obj
 0001:000344c6       __unwindfunclet$?UpdateInterface@CColorConversionOptionsDlg@@QAEXXZ$0 67db54c6 f   ColorConversionDlg.obj
 0001:000344d8       __ehhandler$?UpdateInterface@CColorConversionOptionsDlg@@QAEXXZ 67db54d8 f   ColorConversionDlg.obj
 0001:000344fd       __unwindfunclet$?SetSelectedMethodDescription@CColorConversionOptionsDlg@@IAEXXZ$0 67db54fd f   ColorConversionDlg.obj
 0001:0003450f       __ehhandler$?SetSelectedMethodDescription@CColorConversionOptionsDlg@@IAEXXZ 67db550f f   ColorConversionDlg.obj
 0001:0003452a       __unwindfunclet$?OnApply@CColorConversionOptionsDlg@@IAEXXZ$1 67db552a f   ColorConversionDlg.obj
 0001:0003453c       __ehhandler$?OnApply@CColorConversionOptionsDlg@@IAEXXZ 67db553c f   ColorConversionDlg.obj
 0001:00034570       __unwindfunclet$??__E?m_Methods@CColorConversionOptionsDlg@@0PAUSapColorConversionMethodDictionary@@A@@YAXXZ$1 67db5570 f   ColorConversionDlg.obj
 0001:0003457a       __unwindfunclet$??__E?m_Methods@CColorConversionOptionsDlg@@0PAUSapColorConversionMethodDictionary@@A@@YAXXZ$3 67db557a f   ColorConversionDlg.obj
 0001:00034584       __unwindfunclet$??__E?m_Methods@CColorConversionOptionsDlg@@0PAUSapColorConversionMethodDictionary@@A@@YAXXZ$5 67db5584 f   ColorConversionDlg.obj
 0001:0003458e       __unwindfunclet$??__E?m_Methods@CColorConversionOptionsDlg@@0PAUSapColorConversionMethodDictionary@@A@@YAXXZ$7 67db558e f   ColorConversionDlg.obj
 0001:00034598       __unwindfunclet$??__E?m_Methods@CColorConversionOptionsDlg@@0PAUSapColorConversionMethodDictionary@@A@@YAXXZ$9 67db5598 f   ColorConversionDlg.obj
 0001:000345a2       __unwindfunclet$??__E?m_Methods@CColorConversionOptionsDlg@@0PAUSapColorConversionMethodDictionary@@A@@YAXXZ$11 67db55a2 f   ColorConversionDlg.obj
 0001:000345ac       __unwindfunclet$??__E?m_Methods@CColorConversionOptionsDlg@@0PAUSapColorConversionMethodDictionary@@A@@YAXXZ$13 67db55ac f   ColorConversionDlg.obj
 0001:000345b6       __ehhandler$??__E?m_Methods@CColorConversionOptionsDlg@@0PAUSapColorConversionMethodDictionary@@A@@YAXXZ 67db55b6 f   ColorConversionDlg.obj
 0001:000345e0       __unwindfunclet$??0CCompDlg@@QAE@PAVCWnd@@PAVSapAcquisition@@PAVSapTransfer@@@Z$0 67db55e0 f   CompDlg.obj
 0001:000345e8       __unwindfunclet$??0CCompDlg@@QAE@PAVCWnd@@PAVSapAcquisition@@PAVSapTransfer@@@Z$1 67db55e8 f   CompDlg.obj
 0001:00034600       __unwindfunclet$??0CCompDlg@@QAE@PAVCWnd@@PAVSapAcquisition@@PAVSapTransfer@@@Z$2 67db5600 f   CompDlg.obj
 0001:0003460e       __unwindfunclet$??0CCompDlg@@QAE@PAVCWnd@@PAVSapAcquisition@@PAVSapTransfer@@@Z$3 67db560e f   CompDlg.obj
 0001:0003461c       __unwindfunclet$??0CCompDlg@@QAE@PAVCWnd@@PAVSapAcquisition@@PAVSapTransfer@@@Z$4 67db561c f   CompDlg.obj
 0001:0003462a       __unwindfunclet$??0CCompDlg@@QAE@PAVCWnd@@PAVSapAcquisition@@PAVSapTransfer@@@Z$5 67db562a f   CompDlg.obj
 0001:00034638       __ehhandler$??0CCompDlg@@QAE@PAVCWnd@@PAVSapAcquisition@@PAVSapTransfer@@@Z 67db5638 f   CompDlg.obj
 0001:00034653       __unwindfunclet$?Snap@CCompDlg@@IAEXXZ$0 67db5653 f   CompDlg.obj
 0001:0003465e       __ehhandler$?Snap@CCompDlg@@IAEXXZ 67db565e f   CompDlg.obj
 0001:00034690       __unwindfunclet$??1CCompDlg@@UAE@XZ$0 67db5690 f   CompDlg.obj
 0001:00034698       __unwindfunclet$??1CCompDlg@@UAE@XZ$1 67db5698 f   CompDlg.obj
 0001:000346b0       __unwindfunclet$??1CCompDlg@@UAE@XZ$2 67db56b0 f   CompDlg.obj
 0001:000346be       __unwindfunclet$??1CCompDlg@@UAE@XZ$3 67db56be f   CompDlg.obj
 0001:000346cc       __unwindfunclet$??1CCompDlg@@UAE@XZ$4 67db56cc f   CompDlg.obj
 0001:000346da       __unwindfunclet$??1CCompDlg@@UAE@XZ$5 67db56da f   CompDlg.obj
 0001:000346e8       __ehhandler$??1CCompDlg@@UAE@XZ 67db56e8 f   CompDlg.obj
 0001:00034710       __unwindfunclet$??0CFlatFieldDlg@@QAE@PAVCWnd@@PAVSapFlatField@@PAVSapTransfer@@PAVSapBuffer@@@Z$0 67db5710 f   FlatFieldDlg.obj
 0001:00034718       __unwindfunclet$??0CFlatFieldDlg@@QAE@PAVCWnd@@PAVSapFlatField@@PAVSapTransfer@@PAVSapBuffer@@@Z$1 67db5718 f   FlatFieldDlg.obj
 0001:00034730       __unwindfunclet$??0CFlatFieldDlg@@QAE@PAVCWnd@@PAVSapFlatField@@PAVSapTransfer@@PAVSapBuffer@@@Z$2 67db5730 f   FlatFieldDlg.obj
 0001:0003473e       __unwindfunclet$??0CFlatFieldDlg@@QAE@PAVCWnd@@PAVSapFlatField@@PAVSapTransfer@@PAVSapBuffer@@@Z$3 67db573e f   FlatFieldDlg.obj
 0001:0003474c       __unwindfunclet$??0CFlatFieldDlg@@QAE@PAVCWnd@@PAVSapFlatField@@PAVSapTransfer@@PAVSapBuffer@@@Z$4 67db574c f   FlatFieldDlg.obj
 0001:0003475a       __unwindfunclet$??0CFlatFieldDlg@@QAE@PAVCWnd@@PAVSapFlatField@@PAVSapTransfer@@PAVSapBuffer@@@Z$5 67db575a f   FlatFieldDlg.obj
 0001:00034768       __unwindfunclet$??0CFlatFieldDlg@@QAE@PAVCWnd@@PAVSapFlatField@@PAVSapTransfer@@PAVSapBuffer@@@Z$6 67db5768 f   FlatFieldDlg.obj
 0001:00034776       __unwindfunclet$??0CFlatFieldDlg@@QAE@PAVCWnd@@PAVSapFlatField@@PAVSapTransfer@@PAVSapBuffer@@@Z$7 67db5776 f   FlatFieldDlg.obj
 0001:00034784       __unwindfunclet$??0CFlatFieldDlg@@QAE@PAVCWnd@@PAVSapFlatField@@PAVSapTransfer@@PAVSapBuffer@@@Z$8 67db5784 f   FlatFieldDlg.obj
 0001:0003479c       __ehhandler$??0CFlatFieldDlg@@QAE@PAVCWnd@@PAVSapFlatField@@PAVSapTransfer@@PAVSapBuffer@@@Z 67db579c f   FlatFieldDlg.obj
 0001:000347b7       __unwindfunclet$??1CFlatFieldDlg@@UAE@XZ$0 67db57b7 f   FlatFieldDlg.obj
 0001:000347bf       __unwindfunclet$??1CFlatFieldDlg@@UAE@XZ$1 67db57bf f   FlatFieldDlg.obj
 0001:000347d7       __unwindfunclet$??1CFlatFieldDlg@@UAE@XZ$2 67db57d7 f   FlatFieldDlg.obj
 0001:000347e5       __unwindfunclet$??1CFlatFieldDlg@@UAE@XZ$3 67db57e5 f   FlatFieldDlg.obj
 0001:000347f3       __unwindfunclet$??1CFlatFieldDlg@@UAE@XZ$4 67db57f3 f   FlatFieldDlg.obj
 0001:00034801       __unwindfunclet$??1CFlatFieldDlg@@UAE@XZ$5 67db5801 f   FlatFieldDlg.obj
 0001:0003480f       __unwindfunclet$??1CFlatFieldDlg@@UAE@XZ$6 67db580f f   FlatFieldDlg.obj
 0001:0003481d       __unwindfunclet$??1CFlatFieldDlg@@UAE@XZ$7 67db581d f   FlatFieldDlg.obj
 0001:0003482b       __unwindfunclet$??1CFlatFieldDlg@@UAE@XZ$8 67db582b f   FlatFieldDlg.obj
 0001:00034843       __ehhandler$??1CFlatFieldDlg@@UAE@XZ 67db5843 f   FlatFieldDlg.obj
 0001:0003485e       __unwindfunclet$?OnInitDialog@CFlatFieldDlg@@MAEHXZ$0 67db585e f   FlatFieldDlg.obj
 0001:00034870       __unwindfunclet$?OnInitDialog@CFlatFieldDlg@@MAEHXZ$1 67db5870 f   FlatFieldDlg.obj
 0001:00034882       __unwindfunclet$?OnInitDialog@CFlatFieldDlg@@MAEHXZ$3 67db5882 f   FlatFieldDlg.obj
 0001:00034897       __unwindfunclet$?OnInitDialog@CFlatFieldDlg@@MAEHXZ$4 67db5897 f   FlatFieldDlg.obj
 0001:000348ac       __unwindfunclet$?OnInitDialog@CFlatFieldDlg@@MAEHXZ$5 67db58ac f   FlatFieldDlg.obj
 0001:000348c1       __unwindfunclet$?OnInitDialog@CFlatFieldDlg@@MAEHXZ$6 67db58c1 f   FlatFieldDlg.obj
 0001:000348d6       __unwindfunclet$?OnInitDialog@CFlatFieldDlg@@MAEHXZ$7 67db58d6 f   FlatFieldDlg.obj
 0001:000348eb       __unwindfunclet$?OnInitDialog@CFlatFieldDlg@@MAEHXZ$8 67db58eb f   FlatFieldDlg.obj
 0001:00034900       __ehhandler$?OnInitDialog@CFlatFieldDlg@@MAEHXZ 67db5900 f   FlatFieldDlg.obj
 0001:00034928       __unwindfunclet$?OnDarkImage@CFlatFieldDlg@@IAEXXZ$3 67db5928 f   FlatFieldDlg.obj
 0001:00034942       __unwindfunclet$?OnDarkImage@CFlatFieldDlg@@IAEXXZ$6 67db5942 f   FlatFieldDlg.obj
 0001:0003495c       __unwindfunclet$?OnDarkImage@CFlatFieldDlg@@IAEXXZ$8 67db595c f   FlatFieldDlg.obj
 0001:00034967       __unwindfunclet$?OnDarkImage@CFlatFieldDlg@@IAEXXZ$9 67db5967 f   FlatFieldDlg.obj
 0001:0003497c       __unwindfunclet$?OnDarkImage@CFlatFieldDlg@@IAEXXZ$11 67db597c f   FlatFieldDlg.obj
 0001:00034991       __unwindfunclet$?OnDarkImage@CFlatFieldDlg@@IAEXXZ$14 67db5991 f   FlatFieldDlg.obj
 0001:000349a6       __unwindfunclet$?OnDarkImage@CFlatFieldDlg@@IAEXXZ$15 67db59a6 f   FlatFieldDlg.obj
 0001:000349bb       __ehhandler$?OnDarkImage@CFlatFieldDlg@@IAEXXZ 67db59bb f   FlatFieldDlg.obj
 0001:000349e3       __unwindfunclet$?DarkImage@CFlatFieldDlg@@AAEXXZ$0 67db59e3 f   FlatFieldDlg.obj
 0001:000349f5       __unwindfunclet$?DarkImage@CFlatFieldDlg@@AAEXXZ$1 67db59f5 f   FlatFieldDlg.obj
 0001:00034a0a       __unwindfunclet$?DarkImage@CFlatFieldDlg@@AAEXXZ$9 67db5a0a f   FlatFieldDlg.obj
 0001:00034a1f       __unwindfunclet$?DarkImage@CFlatFieldDlg@@AAEXXZ$10 67db5a1f f   FlatFieldDlg.obj
 0001:00034a34       __unwindfunclet$?DarkImage@CFlatFieldDlg@@AAEXXZ$11 67db5a34 f   FlatFieldDlg.obj
 0001:00034a49       __ehhandler$?DarkImage@CFlatFieldDlg@@AAEXXZ 67db5a49 f   FlatFieldDlg.obj
 0001:00034a71       __unwindfunclet$?OnBrightImage@CFlatFieldDlg@@IAEXXZ$3 67db5a71 f   FlatFieldDlg.obj
 0001:00034a8b       __unwindfunclet$?OnBrightImage@CFlatFieldDlg@@IAEXXZ$6 67db5a8b f   FlatFieldDlg.obj
 0001:00034aa5       __unwindfunclet$?OnBrightImage@CFlatFieldDlg@@IAEXXZ$8 67db5aa5 f   FlatFieldDlg.obj
 0001:00034ab0       __unwindfunclet$?OnBrightImage@CFlatFieldDlg@@IAEXXZ$9 67db5ab0 f   FlatFieldDlg.obj
 0001:00034ac5       __unwindfunclet$?OnBrightImage@CFlatFieldDlg@@IAEXXZ$11 67db5ac5 f   FlatFieldDlg.obj
 0001:00034ada       __unwindfunclet$?OnBrightImage@CFlatFieldDlg@@IAEXXZ$14 67db5ada f   FlatFieldDlg.obj
 0001:00034aef       __unwindfunclet$?OnBrightImage@CFlatFieldDlg@@IAEXXZ$15 67db5aef f   FlatFieldDlg.obj
 0001:00034b04       __ehhandler$?OnBrightImage@CFlatFieldDlg@@IAEXXZ 67db5b04 f   FlatFieldDlg.obj
 0001:00034b2c       __unwindfunclet$?BrightImage@CFlatFieldDlg@@AAEXXZ$0 67db5b2c f   FlatFieldDlg.obj
 0001:00034b3e       __unwindfunclet$?BrightImage@CFlatFieldDlg@@AAEXXZ$1 67db5b3e f   FlatFieldDlg.obj
 0001:00034b53       __unwindfunclet$?BrightImage@CFlatFieldDlg@@AAEXXZ$7 67db5b53 f   FlatFieldDlg.obj
 0001:00034b68       __unwindfunclet$?BrightImage@CFlatFieldDlg@@AAEXXZ$8 67db5b68 f   FlatFieldDlg.obj
 0001:00034b7d       __unwindfunclet$?BrightImage@CFlatFieldDlg@@AAEXXZ$9 67db5b7d f   FlatFieldDlg.obj
 0001:00034b92       __unwindfunclet$?BrightImage@CFlatFieldDlg@@AAEXXZ$10 67db5b92 f   FlatFieldDlg.obj
 0001:00034ba7       __unwindfunclet$?BrightImage@CFlatFieldDlg@@AAEXXZ$11 67db5ba7 f   FlatFieldDlg.obj
 0001:00034bbc       __unwindfunclet$?BrightImage@CFlatFieldDlg@@AAEXXZ$12 67db5bbc f   FlatFieldDlg.obj
 0001:00034bd1       __unwindfunclet$?BrightImage@CFlatFieldDlg@@AAEXXZ$13 67db5bd1 f   FlatFieldDlg.obj
 0001:00034be6       __unwindfunclet$?BrightImage@CFlatFieldDlg@@AAEXXZ$16 67db5be6 f   FlatFieldDlg.obj
 0001:00034bfb       __unwindfunclet$?BrightImage@CFlatFieldDlg@@AAEXXZ$18 67db5bfb f   FlatFieldDlg.obj
 0001:00034c10       __unwindfunclet$?BrightImage@CFlatFieldDlg@@AAEXXZ$20 67db5c10 f   FlatFieldDlg.obj
 0001:00034c25       __unwindfunclet$?BrightImage@CFlatFieldDlg@@AAEXXZ$22 67db5c25 f   FlatFieldDlg.obj
 0001:00034c3a       __unwindfunclet$?BrightImage@CFlatFieldDlg@@AAEXXZ$23 67db5c3a f   FlatFieldDlg.obj
 0001:00034c4f       __unwindfunclet$?BrightImage@CFlatFieldDlg@@AAEXXZ$25 67db5c4f f   FlatFieldDlg.obj
 0001:00034c64       __ehhandler$?BrightImage@CFlatFieldDlg@@AAEXXZ 67db5c64 f   FlatFieldDlg.obj
 0001:00034c8c       __unwindfunclet$?Snap@CFlatFieldDlg@@QAEHXZ$0 67db5c8c f   FlatFieldDlg.obj
 0001:00034c97       __ehhandler$?Snap@CFlatFieldDlg@@QAEHXZ 67db5c97 f   FlatFieldDlg.obj
 0001:00034cbf       __unwindfunclet$?LogMessage@CFlatFieldDlg@@AAEXHV?$CStringT@DV?$StrTraitMFC_DLL@DV?$ChTraitsCRT@D@ATL@@@@@ATL@@@Z$0 67db5cbf f   FlatFieldDlg.obj
 0001:00034cd1       __unwindfunclet$?LogMessage@CFlatFieldDlg@@AAEXHV?$CStringT@DV?$StrTraitMFC_DLL@DV?$ChTraitsCRT@D@ATL@@@@@ATL@@@Z$1 67db5cd1 f   FlatFieldDlg.obj
 0001:00034ce3       __ehhandler$?LogMessage@CFlatFieldDlg@@AAEXHV?$CStringT@DV?$StrTraitMFC_DLL@DV?$ChTraitsCRT@D@ATL@@@@@ATL@@@Z 67db5ce3 f   FlatFieldDlg.obj
 0001:00034cfe       __unwindfunclet$?GetAverageStr@CFlatFieldDlg@@ABE?AV?$CStringT@DV?$StrTraitMFC_DLL@DV?$ChTraitsCRT@D@ATL@@@@@ATL@@AAVSapFlatFieldStats@@@Z$0 67db5cfe f   FlatFieldDlg.obj
 0001:00034d10       __unwindfunclet$?GetAverageStr@CFlatFieldDlg@@ABE?AV?$CStringT@DV?$StrTraitMFC_DLL@DV?$ChTraitsCRT@D@ATL@@@@@ATL@@AAVSapFlatFieldStats@@@Z$1 67db5d10 f   FlatFieldDlg.obj
 0001:00034d22       __ehhandler$?GetAverageStr@CFlatFieldDlg@@ABE?AV?$CStringT@DV?$StrTraitMFC_DLL@DV?$ChTraitsCRT@D@ATL@@@@@ATL@@AAVSapFlatFieldStats@@@Z 67db5d22 f   FlatFieldDlg.obj
 0001:00034d3d       __unwindfunclet$?GetStdDeviationStr@CFlatFieldDlg@@ABE?AV?$CStringT@DV?$StrTraitMFC_DLL@DV?$ChTraitsCRT@D@ATL@@@@@ATL@@AAVSapFlatFieldStats@@@Z$0 67db5d3d f   FlatFieldDlg.obj
 0001:00034d4f       __unwindfunclet$?GetStdDeviationStr@CFlatFieldDlg@@ABE?AV?$CStringT@DV?$StrTraitMFC_DLL@DV?$ChTraitsCRT@D@ATL@@@@@ATL@@AAVSapFlatFieldStats@@@Z$1 67db5d4f f   FlatFieldDlg.obj
 0001:00034d61       __ehhandler$?GetStdDeviationStr@CFlatFieldDlg@@ABE?AV?$CStringT@DV?$StrTraitMFC_DLL@DV?$ChTraitsCRT@D@ATL@@@@@ATL@@AAVSapFlatFieldStats@@@Z 67db5d61 f   FlatFieldDlg.obj
 0001:00034d7c       __unwindfunclet$?GetLowStr@CFlatFieldDlg@@ABE?AV?$CStringT@DV?$StrTraitMFC_DLL@DV?$ChTraitsCRT@D@ATL@@@@@ATL@@AAVSapFlatFieldStats@@@Z$0 67db5d7c f   FlatFieldDlg.obj
 0001:00034d8e       __unwindfunclet$?GetLowStr@CFlatFieldDlg@@ABE?AV?$CStringT@DV?$StrTraitMFC_DLL@DV?$ChTraitsCRT@D@ATL@@@@@ATL@@AAVSapFlatFieldStats@@@Z$1 67db5d8e f   FlatFieldDlg.obj
 0001:00034da0       __ehhandler$?GetLowStr@CFlatFieldDlg@@ABE?AV?$CStringT@DV?$StrTraitMFC_DLL@DV?$ChTraitsCRT@D@ATL@@@@@ATL@@AAVSapFlatFieldStats@@@Z 67db5da0 f   FlatFieldDlg.obj
 0001:00034dbb       __unwindfunclet$?GetHighStr@CFlatFieldDlg@@ABE?AV?$CStringT@DV?$StrTraitMFC_DLL@DV?$ChTraitsCRT@D@ATL@@@@@ATL@@AAVSapFlatFieldStats@@@Z$0 67db5dbb f   FlatFieldDlg.obj
 0001:00034dcd       __unwindfunclet$?GetHighStr@CFlatFieldDlg@@ABE?AV?$CStringT@DV?$StrTraitMFC_DLL@DV?$ChTraitsCRT@D@ATL@@@@@ATL@@AAVSapFlatFieldStats@@@Z$1 67db5dcd f   FlatFieldDlg.obj
 0001:00034ddf       __ehhandler$?GetHighStr@CFlatFieldDlg@@ABE?AV?$CStringT@DV?$StrTraitMFC_DLL@DV?$ChTraitsCRT@D@ATL@@@@@ATL@@AAVSapFlatFieldStats@@@Z 67db5ddf f   FlatFieldDlg.obj
 0001:00034dfa       __unwindfunclet$?GetPeakPositionStr@CFlatFieldDlg@@ABE?AV?$CStringT@DV?$StrTraitMFC_DLL@DV?$ChTraitsCRT@D@ATL@@@@@ATL@@AAVSapFlatFieldStats@@@Z$0 67db5dfa f   FlatFieldDlg.obj
 0001:00034e0c       __unwindfunclet$?GetPeakPositionStr@CFlatFieldDlg@@ABE?AV?$CStringT@DV?$StrTraitMFC_DLL@DV?$ChTraitsCRT@D@ATL@@@@@ATL@@AAVSapFlatFieldStats@@@Z$1 67db5e0c f   FlatFieldDlg.obj
 0001:00034e1e       __ehhandler$?GetPeakPositionStr@CFlatFieldDlg@@ABE?AV?$CStringT@DV?$StrTraitMFC_DLL@DV?$ChTraitsCRT@D@ATL@@@@@ATL@@AAVSapFlatFieldStats@@@Z 67db5e1e f   FlatFieldDlg.obj
 0001:00034e39       __unwindfunclet$?GetPixelRatioStr@CFlatFieldDlg@@ABE?AV?$CStringT@DV?$StrTraitMFC_DLL@DV?$ChTraitsCRT@D@ATL@@@@@ATL@@AAVSapFlatFieldStats@@@Z$0 67db5e39 f   FlatFieldDlg.obj
 0001:00034e4b       __unwindfunclet$?GetPixelRatioStr@CFlatFieldDlg@@ABE?AV?$CStringT@DV?$StrTraitMFC_DLL@DV?$ChTraitsCRT@D@ATL@@@@@ATL@@AAVSapFlatFieldStats@@@Z$1 67db5e4b f   FlatFieldDlg.obj
 0001:00034e5d       __ehhandler$?GetPixelRatioStr@CFlatFieldDlg@@ABE?AV?$CStringT@DV?$StrTraitMFC_DLL@DV?$ChTraitsCRT@D@ATL@@@@@ATL@@AAVSapFlatFieldStats@@@Z 67db5e5d f   FlatFieldDlg.obj
 0001:00034e78       __unwindfunclet$?GetNumPixelsStr@CFlatFieldDlg@@ABE?AV?$CStringT@DV?$StrTraitMFC_DLL@DV?$ChTraitsCRT@D@ATL@@@@@ATL@@AAVSapFlatFieldStats@@@Z$0 67db5e78 f   FlatFieldDlg.obj
 0001:00034e8a       __unwindfunclet$?GetNumPixelsStr@CFlatFieldDlg@@ABE?AV?$CStringT@DV?$StrTraitMFC_DLL@DV?$ChTraitsCRT@D@ATL@@@@@ATL@@AAVSapFlatFieldStats@@@Z$1 67db5e8a f   FlatFieldDlg.obj
 0001:00034e9c       __ehhandler$?GetNumPixelsStr@CFlatFieldDlg@@ABE?AV?$CStringT@DV?$StrTraitMFC_DLL@DV?$ChTraitsCRT@D@ATL@@@@@ATL@@AAVSapFlatFieldStats@@@Z 67db5e9c f   FlatFieldDlg.obj
 0001:00034eb7       __unwindfunclet$?OnSaveAndUpload@CFlatFieldDlg@@IAEXXZ$0 67db5eb7 f   FlatFieldDlg.obj
 0001:00034ec2       __unwindfunclet$?OnSaveAndUpload@CFlatFieldDlg@@IAEXXZ$1 67db5ec2 f   FlatFieldDlg.obj
 0001:00034ed7       __unwindfunclet$?OnSaveAndUpload@CFlatFieldDlg@@IAEXXZ$3 67db5ed7 f   FlatFieldDlg.obj
 0001:00034ee2       __unwindfunclet$?OnSaveAndUpload@CFlatFieldDlg@@IAEXXZ$5 67db5ee2 f   FlatFieldDlg.obj
 0001:00034ef7       __ehhandler$?OnSaveAndUpload@CFlatFieldDlg@@IAEXXZ 67db5ef7 f   FlatFieldDlg.obj
 0001:00034f20       __unwindfunclet$??0CGioBidirectionalDlg@@QAE@PAVCWnd@@IPAVSapGio@@@Z$0 67db5f20 f   GioBidirectionalDlg.obj
 0001:00034f28       __unwindfunclet$??0CGioBidirectionalDlg@@QAE@PAVCWnd@@IPAVSapGio@@@Z$1 67db5f28 f   GioBidirectionalDlg.obj
 0001:00034f36       __unwindfunclet$??0CGioBidirectionalDlg@@QAE@PAVCWnd@@IPAVSapGio@@@Z$2 67db5f36 f   GioBidirectionalDlg.obj
 0001:00034f44       __unwindfunclet$??0CGioBidirectionalDlg@@QAE@PAVCWnd@@IPAVSapGio@@@Z$3 67db5f44 f   GioBidirectionalDlg.obj
 0001:00034f52       __ehhandler$??0CGioBidirectionalDlg@@QAE@PAVCWnd@@IPAVSapGio@@@Z 67db5f52 f   GioBidirectionalDlg.obj
 0001:00034f6d       __unwindfunclet$?GioCallbackInfo@CGioBidirectionalDlg@@SAXPAVSapGioCallbackInfo@@@Z$0 67db5f6d f   GioBidirectionalDlg.obj
 0001:00034f7f       __ehhandler$?GioCallbackInfo@CGioBidirectionalDlg@@SAXPAVSapGioCallbackInfo@@@Z 67db5f7f f   GioBidirectionalDlg.obj
 0001:00034f9a       __unwindfunclet$?OnInitDialog@CGioBidirectionalDlg@@MAEHXZ$0 67db5f9a f   GioBidirectionalDlg.obj
 0001:00034faf       __ehhandler$?OnInitDialog@CGioBidirectionalDlg@@MAEHXZ 67db5faf f   GioBidirectionalDlg.obj
 0001:00034fd7       __unwindfunclet$?OnEnableCallback@CGioBidirectionalDlg@@IAEXXZ$0 67db5fd7 f   GioBidirectionalDlg.obj
 0001:00034fe9       __ehhandler$?OnEnableCallback@CGioBidirectionalDlg@@IAEXXZ 67db5fe9 f   GioBidirectionalDlg.obj
 0001:0003500e       __unwindfunclet$?Update@CGioBidirectionalDlg@@QAEHXZ$0 67db600e f   GioBidirectionalDlg.obj
 0001:00035020       __ehhandler$?Update@CGioBidirectionalDlg@@QAEHXZ 67db6020 f   GioBidirectionalDlg.obj
 0001:0003503b       __unwindfunclet$?ResetInterruptCount@CGioBidirectionalDlg@@IAEHXZ$0 67db603b f   GioBidirectionalDlg.obj
 0001:0003504d       __ehhandler$?ResetInterruptCount@CGioBidirectionalDlg@@IAEHXZ 67db604d f   GioBidirectionalDlg.obj
 0001:00035068       __unwindfunclet$?ChangePinState@CGioBidirectionalDlg@@IAEXH@Z$0 67db6068 f   GioBidirectionalDlg.obj
 0001:0003507a       __ehhandler$?ChangePinState@CGioBidirectionalDlg@@IAEXH@Z 67db607a f   GioBidirectionalDlg.obj
 0001:000350a0       __unwindfunclet$??1CGioBidirectionalDlg@@UAE@XZ$0 67db60a0 f   GioBidirectionalDlg.obj
 0001:000350a8       __unwindfunclet$??1CGioBidirectionalDlg@@UAE@XZ$1 67db60a8 f   GioBidirectionalDlg.obj
 0001:000350b6       __unwindfunclet$??1CGioBidirectionalDlg@@UAE@XZ$2 67db60b6 f   GioBidirectionalDlg.obj
 0001:000350c4       __unwindfunclet$??1CGioBidirectionalDlg@@UAE@XZ$3 67db60c4 f   GioBidirectionalDlg.obj
 0001:000350d2       __ehhandler$??1CGioBidirectionalDlg@@UAE@XZ 67db60d2 f   GioBidirectionalDlg.obj
 0001:000350f0       __unwindfunclet$??0CGioInputDlg@@QAE@PAVCWnd@@IPAVSapGio@@@Z$0 67db60f0 f   GioInputDlg.obj
 0001:000350f8       __unwindfunclet$??0CGioInputDlg@@QAE@PAVCWnd@@IPAVSapGio@@@Z$1 67db60f8 f   GioInputDlg.obj
 0001:00035106       __unwindfunclet$??0CGioInputDlg@@QAE@PAVCWnd@@IPAVSapGio@@@Z$2 67db6106 f   GioInputDlg.obj
 0001:00035114       __unwindfunclet$??0CGioInputDlg@@QAE@PAVCWnd@@IPAVSapGio@@@Z$3 67db6114 f   GioInputDlg.obj
 0001:00035122       __ehhandler$??0CGioInputDlg@@QAE@PAVCWnd@@IPAVSapGio@@@Z 67db6122 f   GioInputDlg.obj
 0001:0003513d       __unwindfunclet$?GioCallbackInfo@CGioInputDlg@@SAXPAVSapGioCallbackInfo@@@Z$0 67db613d f   GioInputDlg.obj
 0001:0003514f       __ehhandler$?GioCallbackInfo@CGioInputDlg@@SAXPAVSapGioCallbackInfo@@@Z 67db614f f   GioInputDlg.obj
 0001:0003516a       __unwindfunclet$?OnInitDialog@CGioInputDlg@@MAEHXZ$0 67db616a f   GioInputDlg.obj
 0001:0003517f       __ehhandler$?OnInitDialog@CGioInputDlg@@MAEHXZ 67db617f f   GioInputDlg.obj
 0001:000351a7       __unwindfunclet$?Update@CGioInputDlg@@QAEHXZ$0 67db61a7 f   GioInputDlg.obj
 0001:000351b9       __ehhandler$?Update@CGioInputDlg@@QAEHXZ 67db61b9 f   GioInputDlg.obj
 0001:000351d4       __unwindfunclet$?ResetInterruptCount@CGioInputDlg@@IAEHXZ$0 67db61d4 f   GioInputDlg.obj
 0001:000351e6       __ehhandler$?ResetInterruptCount@CGioInputDlg@@IAEHXZ 67db61e6 f   GioInputDlg.obj
 0001:00035210       __unwindfunclet$??1CGioInputDlg@@UAE@XZ$0 67db6210 f   GioInputDlg.obj
 0001:00035218       __unwindfunclet$??1CGioInputDlg@@UAE@XZ$1 67db6218 f   GioInputDlg.obj
 0001:00035226       __unwindfunclet$??1CGioInputDlg@@UAE@XZ$2 67db6226 f   GioInputDlg.obj
 0001:00035234       __unwindfunclet$??1CGioInputDlg@@UAE@XZ$3 67db6234 f   GioInputDlg.obj
 0001:00035242       __ehhandler$??1CGioInputDlg@@UAE@XZ 67db6242 f   GioInputDlg.obj
 0001:00035260       __unwindfunclet$??0CGioOutputDlg@@QAE@PAVCWnd@@IPAVSapGio@@@Z$0 67db6260 f   GioOutputDlg.obj
 0001:00035268       __unwindfunclet$??0CGioOutputDlg@@QAE@PAVCWnd@@IPAVSapGio@@@Z$1 67db6268 f   GioOutputDlg.obj
 0001:00035276       __unwindfunclet$??0CGioOutputDlg@@QAE@PAVCWnd@@IPAVSapGio@@@Z$2 67db6276 f   GioOutputDlg.obj
 0001:00035284       __unwindfunclet$??0CGioOutputDlg@@QAE@PAVCWnd@@IPAVSapGio@@@Z$3 67db6284 f   GioOutputDlg.obj
 0001:00035292       __unwindfunclet$??0CGioOutputDlg@@QAE@PAVCWnd@@IPAVSapGio@@@Z$4 67db6292 f   GioOutputDlg.obj
 0001:000352a0       __unwindfunclet$??0CGioOutputDlg@@QAE@PAVCWnd@@IPAVSapGio@@@Z$5 67db62a0 f   GioOutputDlg.obj
 0001:000352ae       __ehhandler$??0CGioOutputDlg@@QAE@PAVCWnd@@IPAVSapGio@@@Z 67db62ae f   GioOutputDlg.obj
 0001:000352c9       __unwindfunclet$?OnInitDialog@CGioOutputDlg@@MAEHXZ$0 67db62c9 f   GioOutputDlg.obj
 0001:000352de       __ehhandler$?OnInitDialog@CGioOutputDlg@@MAEHXZ 67db62de f   GioOutputDlg.obj
 0001:00035306       __unwindfunclet$?UpdateIO@CGioOutputDlg@@IAEXXZ$0 67db6306 f   GioOutputDlg.obj
 0001:00035318       __ehhandler$?UpdateIO@CGioOutputDlg@@IAEXXZ 67db6318 f   GioOutputDlg.obj
 0001:00035333       __unwindfunclet$?ChangePinState@CGioOutputDlg@@QAEXPAVCButton@@@Z$0 67db6333 f   GioOutputDlg.obj
 0001:00035345       __ehhandler$?ChangePinState@CGioOutputDlg@@QAEXPAVCButton@@@Z 67db6345 f   GioOutputDlg.obj
 0001:00035360       __unwindfunclet$??1CGioOutputDlg@@UAE@XZ$0 67db6360 f   GioOutputDlg.obj
 0001:00035368       __unwindfunclet$??1CGioOutputDlg@@UAE@XZ$1 67db6368 f   GioOutputDlg.obj
 0001:00035376       __unwindfunclet$??1CGioOutputDlg@@UAE@XZ$2 67db6376 f   GioOutputDlg.obj
 0001:00035384       __unwindfunclet$??1CGioOutputDlg@@UAE@XZ$3 67db6384 f   GioOutputDlg.obj
 0001:00035392       __unwindfunclet$??1CGioOutputDlg@@UAE@XZ$4 67db6392 f   GioOutputDlg.obj
 0001:000353a0       __unwindfunclet$??1CGioOutputDlg@@UAE@XZ$5 67db63a0 f   GioOutputDlg.obj
 0001:000353ae       __ehhandler$??1CGioOutputDlg@@UAE@XZ 67db63ae f   GioOutputDlg.obj
 0001:000353d0       __unwindfunclet$??0CImageWnd@@QAE@PAVSapView@@PAVCWnd@@PAVCScrollBar@@21@Z$0 67db63d0 f   ImageWnd.obj
 0001:000353db       __ehhandler$??0CImageWnd@@QAE@PAVSapView@@PAVCWnd@@PAVCScrollBar@@21@Z 67db63db f   ImageWnd.obj
 0001:00035400       __unwindfunclet$??0CImageWnd@@QAE@PAVSapView@@PAVCWnd@@@Z$0 67db6400 f   ImageWnd.obj
 0001:0003540b       __ehhandler$??0CImageWnd@@QAE@PAVSapView@@PAVCWnd@@@Z 67db640b f   ImageWnd.obj
 0001:00035430       __unwindfunclet$?DisplayRoiTracker@CImageWnd@@QAEXXZ$0 67db6430 f   ImageWnd.obj
 0001:00035438       __unwindfunclet$?DisplayRoiTracker@CImageWnd@@QAEXXZ$1 67db6438 f   ImageWnd.obj
 0001:00035440       __ehhandler$?DisplayRoiTracker@CImageWnd@@QAEXXZ 67db6440 f   ImageWnd.obj
 0001:00035465       __unwindfunclet$?GetPixelString@CImageWnd@@QAE?AV?$CStringT@DV?$StrTraitMFC_DLL@DV?$ChTraitsCRT@D@ATL@@@@@ATL@@VCPoint@@@Z$0 67db6465 f   ImageWnd.obj
 0001:00035477       __unwindfunclet$?GetPixelString@CImageWnd@@QAE?AV?$CStringT@DV?$StrTraitMFC_DLL@DV?$ChTraitsCRT@D@ATL@@@@@ATL@@VCPoint@@@Z$2 67db6477 f   ImageWnd.obj
 0001:00035489       __unwindfunclet$?GetPixelString@CImageWnd@@QAE?AV?$CStringT@DV?$StrTraitMFC_DLL@DV?$ChTraitsCRT@D@ATL@@@@@ATL@@VCPoint@@@Z$3 67db6489 f   ImageWnd.obj
 0001:0003549b       __unwindfunclet$?GetPixelString@CImageWnd@@QAE?AV?$CStringT@DV?$StrTraitMFC_DLL@DV?$ChTraitsCRT@D@ATL@@@@@ATL@@VCPoint@@@Z$4 67db649b f   ImageWnd.obj
 0001:000354ad       __unwindfunclet$?GetPixelString@CImageWnd@@QAE?AV?$CStringT@DV?$StrTraitMFC_DLL@DV?$ChTraitsCRT@D@ATL@@@@@ATL@@VCPoint@@@Z$5 67db64ad f   ImageWnd.obj
 0001:000354c2       __unwindfunclet$?GetPixelString@CImageWnd@@QAE?AV?$CStringT@DV?$StrTraitMFC_DLL@DV?$ChTraitsCRT@D@ATL@@@@@ATL@@VCPoint@@@Z$6 67db64c2 f   ImageWnd.obj
 0001:000354d7       __unwindfunclet$?GetPixelString@CImageWnd@@QAE?AV?$CStringT@DV?$StrTraitMFC_DLL@DV?$ChTraitsCRT@D@ATL@@@@@ATL@@VCPoint@@@Z$7 67db64d7 f   ImageWnd.obj
 0001:000354ec       __unwindfunclet$?GetPixelString@CImageWnd@@QAE?AV?$CStringT@DV?$StrTraitMFC_DLL@DV?$ChTraitsCRT@D@ATL@@@@@ATL@@VCPoint@@@Z$8 67db64ec f   ImageWnd.obj
 0001:00035501       __unwindfunclet$?GetPixelString@CImageWnd@@QAE?AV?$CStringT@DV?$StrTraitMFC_DLL@DV?$ChTraitsCRT@D@ATL@@@@@ATL@@VCPoint@@@Z$9 67db6501 f   ImageWnd.obj
 0001:00035516       __unwindfunclet$?GetPixelString@CImageWnd@@QAE?AV?$CStringT@DV?$StrTraitMFC_DLL@DV?$ChTraitsCRT@D@ATL@@@@@ATL@@VCPoint@@@Z$10 67db6516 f   ImageWnd.obj
 0001:0003552b       __unwindfunclet$?GetPixelString@CImageWnd@@QAE?AV?$CStringT@DV?$StrTraitMFC_DLL@DV?$ChTraitsCRT@D@ATL@@@@@ATL@@VCPoint@@@Z$11 67db652b f   ImageWnd.obj
 0001:00035540       __unwindfunclet$?GetPixelString@CImageWnd@@QAE?AV?$CStringT@DV?$StrTraitMFC_DLL@DV?$ChTraitsCRT@D@ATL@@@@@ATL@@VCPoint@@@Z$12 67db6540 f   ImageWnd.obj
 0001:00035555       __unwindfunclet$?GetPixelString@CImageWnd@@QAE?AV?$CStringT@DV?$StrTraitMFC_DLL@DV?$ChTraitsCRT@D@ATL@@@@@ATL@@VCPoint@@@Z$13 67db6555 f   ImageWnd.obj
 0001:0003556a       __unwindfunclet$?GetPixelString@CImageWnd@@QAE?AV?$CStringT@DV?$StrTraitMFC_DLL@DV?$ChTraitsCRT@D@ATL@@@@@ATL@@VCPoint@@@Z$14 67db656a f   ImageWnd.obj
 0001:0003557f       __unwindfunclet$?GetPixelString@CImageWnd@@QAE?AV?$CStringT@DV?$StrTraitMFC_DLL@DV?$ChTraitsCRT@D@ATL@@@@@ATL@@VCPoint@@@Z$15 67db657f f   ImageWnd.obj
 0001:00035594       __unwindfunclet$?GetPixelString@CImageWnd@@QAE?AV?$CStringT@DV?$StrTraitMFC_DLL@DV?$ChTraitsCRT@D@ATL@@@@@ATL@@VCPoint@@@Z$16 67db6594 f   ImageWnd.obj
 0001:000355a9       __unwindfunclet$?GetPixelString@CImageWnd@@QAE?AV?$CStringT@DV?$StrTraitMFC_DLL@DV?$ChTraitsCRT@D@ATL@@@@@ATL@@VCPoint@@@Z$17 67db65a9 f   ImageWnd.obj
 0001:000355be       __ehhandler$?GetPixelString@CImageWnd@@QAE?AV?$CStringT@DV?$StrTraitMFC_DLL@DV?$ChTraitsCRT@D@ATL@@@@@ATL@@VCPoint@@@Z 67db65be f   ImageWnd.obj
 0001:000355f0       __unwindfunclet$??HATL@@YA?AV?$CStringT@DV?$StrTraitMFC_DLL@DV?$ChTraitsCRT@D@ATL@@@@@0@PBDABV10@@Z$0 67db65f0 f   ImageWnd.obj
 0001:00035602       __ehhandler$??HATL@@YA?AV?$CStringT@DV?$StrTraitMFC_DLL@DV?$ChTraitsCRT@D@ATL@@@@@0@PBDABV10@@Z 67db6602 f   ImageWnd.obj
 0001:00035620       __unwindfunclet$??0CJpegFileDlg@@QAE@PAVCWnd@@H@Z$0 67db6620 f   JpegFileDlg.obj
 0001:00035628       __ehhandler$??0CJpegFileDlg@@QAE@PAVCWnd@@H@Z 67db6628 f   JpegFileDlg.obj
 0001:00035650       __unwindfunclet$??0CLoadSaveDlg@@QAE@PAVCWnd@@PAVSapBuffer@@HH@Z$0 67db6650 f   LoadSaveDlg.obj
 0001:00035658       __unwindfunclet$??0CLoadSaveDlg@@QAE@PAVCWnd@@PAVSapBuffer@@HH@Z$1 67db6658 f   LoadSaveDlg.obj
 0001:00035670       __ehhandler$??0CLoadSaveDlg@@QAE@PAVCWnd@@PAVSapBuffer@@HH@Z 67db6670 f   LoadSaveDlg.obj
 0001:0003568b       __unwindfunclet$?UpdateBuffer@CLoadSaveDlg@@IAEHXZ$0 67db668b f   LoadSaveDlg.obj
 0001:00035693       __unwindfunclet$?UpdateBuffer@CLoadSaveDlg@@IAEHXZ$1 67db6693 f   LoadSaveDlg.obj
 0001:000356a5       __unwindfunclet$?UpdateBuffer@CLoadSaveDlg@@IAEHXZ$2 67db66a5 f   LoadSaveDlg.obj
 0001:000356b7       __unwindfunclet$?UpdateBuffer@CLoadSaveDlg@@IAEHXZ$3 67db66b7 f   LoadSaveDlg.obj
 0001:000356c9       __unwindfunclet$?UpdateBuffer@CLoadSaveDlg@@IAEHXZ$4 67db66c9 f   LoadSaveDlg.obj
 0001:000356db       __unwindfunclet$?UpdateBuffer@CLoadSaveDlg@@IAEHXZ$5 67db66db f   LoadSaveDlg.obj
 0001:000356ed       __ehhandler$?UpdateBuffer@CLoadSaveDlg@@IAEHXZ 67db66ed f   LoadSaveDlg.obj
 0001:00035708       __unwindfunclet$?LoadSettings@CLoadSaveDlg@@IAEXXZ$0 67db6708 f   LoadSaveDlg.obj
 0001:0003571a       __ehhandler$?LoadSettings@CLoadSaveDlg@@IAEXXZ 67db671a f   LoadSaveDlg.obj
 0001:00035735       __unwindfunclet$?SaveSettings@CLoadSaveDlg@@IAEXXZ$0 67db6735 f   LoadSaveDlg.obj
 0001:00035747       __ehhandler$?SaveSettings@CLoadSaveDlg@@IAEXXZ 67db6747 f   LoadSaveDlg.obj
 0001:00035762       __unwindfunclet$?AddTiffOptions@CLoadSaveDlg@@IAEHXZ$0 67db6762 f   LoadSaveDlg.obj
 0001:0003576d       __unwindfunclet$?AddTiffOptions@CLoadSaveDlg@@IAEHXZ$1 67db676d f   LoadSaveDlg.obj
 0001:00035782       __unwindfunclet$?AddTiffOptions@CLoadSaveDlg@@IAEHXZ$2 67db6782 f   LoadSaveDlg.obj
 0001:00035797       __unwindfunclet$?AddTiffOptions@CLoadSaveDlg@@IAEHXZ$3 67db6797 f   LoadSaveDlg.obj
 0001:000357ac       __unwindfunclet$?AddTiffOptions@CLoadSaveDlg@@IAEHXZ$4 67db67ac f   LoadSaveDlg.obj
 0001:000357c1       __ehhandler$?AddTiffOptions@CLoadSaveDlg@@IAEHXZ 67db67c1 f   LoadSaveDlg.obj
 0001:000357df       __unwindfunclet$?AddRawOptions@CLoadSaveDlg@@IAEHXZ$0 67db67df f   LoadSaveDlg.obj
 0001:000357ea       __unwindfunclet$?AddRawOptions@CLoadSaveDlg@@IAEHXZ$1 67db67ea f   LoadSaveDlg.obj
 0001:000357ff       __unwindfunclet$?AddRawOptions@CLoadSaveDlg@@IAEHXZ$2 67db67ff f   LoadSaveDlg.obj
 0001:00035814       __ehhandler$?AddRawOptions@CLoadSaveDlg@@IAEHXZ 67db6814 f   LoadSaveDlg.obj
 0001:00035832       __unwindfunclet$?AddJpegOptions@CLoadSaveDlg@@IAEHXZ$0 67db6832 f   LoadSaveDlg.obj
 0001:0003583d       __unwindfunclet$?AddJpegOptions@CLoadSaveDlg@@IAEHXZ$1 67db683d f   LoadSaveDlg.obj
 0001:00035852       __unwindfunclet$?AddJpegOptions@CLoadSaveDlg@@IAEHXZ$2 67db6852 f   LoadSaveDlg.obj
 0001:00035867       __ehhandler$?AddJpegOptions@CLoadSaveDlg@@IAEHXZ 67db6867 f   LoadSaveDlg.obj
 0001:00035885       __unwindfunclet$?AddAviOptions@CLoadSaveDlg@@IAEHXZ$0 67db6885 f   LoadSaveDlg.obj
 0001:00035890       __ehhandler$?AddAviOptions@CLoadSaveDlg@@IAEHXZ 67db6890 f   LoadSaveDlg.obj
 0001:000358ae       __unwindfunclet$?OnTypeChange@CLoadSaveDlg@@MAEXXZ$0 67db68ae f   LoadSaveDlg.obj
 0001:000358c0       __ehhandler$?OnTypeChange@CLoadSaveDlg@@MAEXXZ 67db68c0 f   LoadSaveDlg.obj
 0001:000358e0       __unwindfunclet$??1CRawFileDlg@@UAE@XZ$0 67db68e0 f   LoadSaveDlg.obj
 0001:000358e8       __ehhandler$??1CRawFileDlg@@UAE@XZ 67db68e8 f   LoadSaveDlg.obj
 0001:00035910       __unwindfunclet$??__E?m_TiffCompressionTypes@CLoadSaveDlg@@1PAV?$CStringT@DV?$StrTraitMFC_DLL@DV?$ChTraitsCRT@D@ATL@@@@@ATL@@A@@YAXXZ$0 67db6910 f   LoadSaveDlg.obj
 0001:00035924       __unwindfunclet$??__E?m_TiffCompressionTypes@CLoadSaveDlg@@1PAV?$CStringT@DV?$StrTraitMFC_DLL@DV?$ChTraitsCRT@D@ATL@@@@@ATL@@A@@YAXXZ$1 67db6924 f   LoadSaveDlg.obj
 0001:00035938       __unwindfunclet$??__E?m_TiffCompressionTypes@CLoadSaveDlg@@1PAV?$CStringT@DV?$StrTraitMFC_DLL@DV?$ChTraitsCRT@D@ATL@@@@@ATL@@A@@YAXXZ$2 67db6938 f   LoadSaveDlg.obj
 0001:0003594c       __ehhandler$??__E?m_TiffCompressionTypes@CLoadSaveDlg@@1PAV?$CStringT@DV?$StrTraitMFC_DLL@DV?$ChTraitsCRT@D@ATL@@@@@ATL@@A@@YAXXZ 67db694c f   LoadSaveDlg.obj
 0001:00035970       __unwindfunclet$??0CLScanDlg@@QAE@PAVCWnd@@PAVSapAcquisition@@@Z$0 67db6970 f   LScanDlg.obj
 0001:00035978       __unwindfunclet$??0CLScanDlg@@QAE@PAVCWnd@@PAVSapAcquisition@@@Z$1 67db6978 f   LScanDlg.obj
 0001:00035990       __unwindfunclet$??0CLScanDlg@@QAE@PAVCWnd@@PAVSapAcquisition@@@Z$2 67db6990 f   LScanDlg.obj
 0001:0003599e       __ehhandler$??0CLScanDlg@@QAE@PAVCWnd@@PAVSapAcquisition@@@Z 67db699e f   LScanDlg.obj
 0001:000359b9       __unwindfunclet$?VerifyLineIntegrateDuration@CLScanDlg@@IAEXXZ$0 67db69b9 f   LScanDlg.obj
 0001:000359ce       __ehhandler$?VerifyLineIntegrateDuration@CLScanDlg@@IAEXXZ 67db69ce f   LScanDlg.obj
 0001:00035a00       __unwindfunclet$??1CLScanDlg@@UAE@XZ$0 67db6a00 f   LScanDlg.obj
 0001:00035a08       __unwindfunclet$??1CLScanDlg@@UAE@XZ$1 67db6a08 f   LScanDlg.obj
 0001:00035a20       __unwindfunclet$??1CLScanDlg@@UAE@XZ$2 67db6a20 f   LScanDlg.obj
 0001:00035a2e       __ehhandler$??1CLScanDlg@@UAE@XZ 67db6a2e f   LScanDlg.obj
 0001:00035a50       __unwindfunclet$??0CPixProDlg@@QAE@PAVCWnd@@PAVSapPixPro@@PAVSapXferNode@@@Z$0 67db6a50 f   PixProDlg.obj
 0001:00035a58       __unwindfunclet$??0CPixProDlg@@QAE@PAVCWnd@@PAVSapPixPro@@PAVSapXferNode@@@Z$1 67db6a58 f   PixProDlg.obj
 0001:00035a66       __unwindfunclet$??0CPixProDlg@@QAE@PAVCWnd@@PAVSapPixPro@@PAVSapXferNode@@@Z$2 67db6a66 f   PixProDlg.obj
 0001:00035a74       __unwindfunclet$??0CPixProDlg@@QAE@PAVCWnd@@PAVSapPixPro@@PAVSapXferNode@@@Z$3 67db6a74 f   PixProDlg.obj
 0001:00035a82       __unwindfunclet$??0CPixProDlg@@QAE@PAVCWnd@@PAVSapPixPro@@PAVSapXferNode@@@Z$4 67db6a82 f   PixProDlg.obj
 0001:00035a90       __unwindfunclet$??0CPixProDlg@@QAE@PAVCWnd@@PAVSapPixPro@@PAVSapXferNode@@@Z$6 67db6a90 f   PixProDlg.obj
 0001:00035aa8       __unwindfunclet$??0CPixProDlg@@QAE@PAVCWnd@@PAVSapPixPro@@PAVSapXferNode@@@Z$7 67db6aa8 f   PixProDlg.obj
 0001:00035aba       __unwindfunclet$??0CPixProDlg@@QAE@PAVCWnd@@PAVSapPixPro@@PAVSapXferNode@@@Z$8 67db6aba f   PixProDlg.obj
 0001:00035acc       __unwindfunclet$??0CPixProDlg@@QAE@PAVCWnd@@PAVSapPixPro@@PAVSapXferNode@@@Z$10 67db6acc f   PixProDlg.obj
 0001:00035ae1       __ehhandler$??0CPixProDlg@@QAE@PAVCWnd@@PAVSapPixPro@@PAVSapXferNode@@@Z 67db6ae1 f   PixProDlg.obj
 0001:00035b09       __unwindfunclet$?LoadSettings@CPixProDlg@@IAEXXZ$0 67db6b09 f   PixProDlg.obj
 0001:00035b1b       __unwindfunclet$?LoadSettings@CPixProDlg@@IAEXXZ$1 67db6b1b f   PixProDlg.obj
 0001:00035b2d       __unwindfunclet$?LoadSettings@CPixProDlg@@IAEXXZ$2 67db6b2d f   PixProDlg.obj
 0001:00035b3f       __ehhandler$?LoadSettings@CPixProDlg@@IAEXXZ 67db6b3f f   PixProDlg.obj
 0001:00035b5a       __unwindfunclet$?SaveSettings@CPixProDlg@@IAEXXZ$0 67db6b5a f   PixProDlg.obj
 0001:00035b6c       __ehhandler$?SaveSettings@CPixProDlg@@IAEXXZ 67db6b6c f   PixProDlg.obj
 0001:00035b87       __unwindfunclet$?SetDirectories@CPixProDlg@@IAEXXZ$0 67db6b87 f   PixProDlg.obj
 0001:00035b99       __ehhandler$?SetDirectories@CPixProDlg@@IAEXXZ 67db6b99 f   PixProDlg.obj
 0001:00035bc1       __unwindfunclet$?OnBrowse@CPixProDlg@@IAEXXZ$0 67db6bc1 f   PixProDlg.obj
 0001:00035bd3       __unwindfunclet$?OnBrowse@CPixProDlg@@IAEXXZ$1 67db6bd3 f   PixProDlg.obj
 0001:00035bdb       __unwindfunclet$?OnBrowse@CPixProDlg@@IAEXXZ$2 67db6bdb f   PixProDlg.obj
 0001:00035bed       __ehhandler$?OnBrowse@CPixProDlg@@IAEXXZ 67db6bed f   PixProDlg.obj
 0001:00035c08       __unwindfunclet$?OnOK@CPixProDlg@@MAEXXZ$0 67db6c08 f   PixProDlg.obj
 0001:00035c1d       __unwindfunclet$?OnOK@CPixProDlg@@MAEXXZ$1 67db6c1d f   PixProDlg.obj
 0001:00035c32       __unwindfunclet$?OnOK@CPixProDlg@@MAEXXZ$2 67db6c32 f   PixProDlg.obj
 0001:00035c3d       __unwindfunclet$?OnOK@CPixProDlg@@MAEXXZ$3 67db6c3d f   PixProDlg.obj
 0001:00035c48       __unwindfunclet$?OnOK@CPixProDlg@@MAEXXZ$4 67db6c48 f   PixProDlg.obj
 0001:00035c53       __unwindfunclet$?OnOK@CPixProDlg@@MAEXXZ$5 67db6c53 f   PixProDlg.obj
 0001:00035c5e       __unwindfunclet$?OnOK@CPixProDlg@@MAEXXZ$6 67db6c5e f   PixProDlg.obj
 0001:00035c69       __ehhandler$?OnOK@CPixProDlg@@MAEXXZ 67db6c69 f   PixProDlg.obj
 0001:00035c91       __unwindfunclet$?FillFunctionCombo@CPixProDlg@@IAEXXZ$0 67db6c91 f   PixProDlg.obj
 0001:00035ca3       __unwindfunclet$?FillFunctionCombo@CPixProDlg@@IAEXXZ$1 67db6ca3 f   PixProDlg.obj
 0001:00035cb5       __unwindfunclet$?FillFunctionCombo@CPixProDlg@@IAEXXZ$2 67db6cb5 f   PixProDlg.obj
 0001:00035cca       __unwindfunclet$?FillFunctionCombo@CPixProDlg@@IAEXXZ$3 67db6cca f   PixProDlg.obj
 0001:00035cdf       __ehhandler$?FillFunctionCombo@CPixProDlg@@IAEXXZ 67db6cdf f   PixProDlg.obj
 0001:00035d10       __unwindfunclet$??1CPixProWAvgDlg@@UAE@XZ$0 67db6d10 f   PixProDlg.obj
 0001:00035d18       __ehhandler$??1CPixProWAvgDlg@@UAE@XZ 67db6d18 f   PixProDlg.obj
 0001:00035d40       __unwindfunclet$??1CPixProIntScaleDlg@@UAE@XZ$0 67db6d40 f   PixProDlg.obj
 0001:00035d48       __ehhandler$??1CPixProIntScaleDlg@@UAE@XZ 67db6d48 f   PixProDlg.obj
 0001:00035d70       __unwindfunclet$??1CPixProDlg@@UAE@XZ$0 67db6d70 f   PixProDlg.obj
 0001:00035d78       __unwindfunclet$??1CPixProDlg@@UAE@XZ$1 67db6d78 f   PixProDlg.obj
 0001:00035d86       __unwindfunclet$??1CPixProDlg@@UAE@XZ$2 67db6d86 f   PixProDlg.obj
 0001:00035d94       __unwindfunclet$??1CPixProDlg@@UAE@XZ$3 67db6d94 f   PixProDlg.obj
 0001:00035da2       __unwindfunclet$??1CPixProDlg@@UAE@XZ$4 67db6da2 f   PixProDlg.obj
 0001:00035db0       __ehhandler$??1CPixProDlg@@UAE@XZ 67db6db0 f   PixProDlg.obj
 0001:00035dd0       __unwindfunclet$??0CPixProIntScaleDlg@@QAE@PAVCWnd@@PAUCORPPL_FCT_PROP@@PAVSapPixProParams@@@Z$0 67db6dd0 f   PixProIntScaleDlg.obj
 0001:00035dd8       __ehhandler$??0CPixProIntScaleDlg@@QAE@PAVCWnd@@PAUCORPPL_FCT_PROP@@PAVSapPixProParams@@@Z 67db6dd8 f   PixProIntScaleDlg.obj
 0001:00035e00       __unwindfunclet$??0CPixProWAvgDlg@@QAE@PAVCWnd@@PAUCORPPL_FCT_PROP@@PAVSapPixProParams@@@Z$0 67db6e00 f   PixProWAvgDlg.obj
 0001:00035e08       __ehhandler$??0CPixProWAvgDlg@@QAE@PAVCWnd@@PAUCORPPL_FCT_PROP@@PAVSapPixProParams@@@Z 67db6e08 f   PixProWAvgDlg.obj
 0001:00035e30       __unwindfunclet$??0CRawFileDlg@@QAE@PAVCWnd@@HHHH@Z$0 67db6e30 f   RawFileDlg.obj
 0001:00035e38       __unwindfunclet$??0CRawFileDlg@@QAE@PAVCWnd@@HHHH@Z$1 67db6e38 f   RawFileDlg.obj
 0001:00035e46       __ehhandler$??0CRawFileDlg@@QAE@PAVCWnd@@HHHH@Z 67db6e46 f   RawFileDlg.obj
 0001:00035e61       __unwindfunclet$?OnInitDialog@CRawFileDlg@@MAEHXZ$0 67db6e61 f   RawFileDlg.obj
 0001:00035e73       __ehhandler$?OnInitDialog@CRawFileDlg@@MAEHXZ 67db6e73 f   RawFileDlg.obj
 0001:00035e90       __unwindfunclet$?SapClassGuiInitModule@@YAXXZ$0 67db6e90 f   SapClassGui.obj
 0001:00035ea1       __ehhandler$?SapClassGuiInitModule@@YAXXZ 67db6ea1 f   SapClassGui.obj
 0001:00035ec0       __unwindfunclet$??1CViewDlg@@UAE@XZ$0 67db6ec0 f   SapClassGui.obj
 0001:00035ec8       __unwindfunclet$??1CViewDlg@@UAE@XZ$1 67db6ec8 f   SapClassGui.obj
 0001:00035ed6       __unwindfunclet$??1CViewDlg@@UAE@XZ$2 67db6ed6 f   SapClassGui.obj
 0001:00035ee4       __unwindfunclet$??1CViewDlg@@UAE@XZ$3 67db6ee4 f   SapClassGui.obj
 0001:00035ef2       __ehhandler$??1CViewDlg@@UAE@XZ 67db6ef2 f   SapClassGui.obj
 0001:00035f10       __unwindfunclet$??0CTiffFileDlg@@QAE@PAVCWnd@@HH@Z$0 67db6f10 f   TiffFileDlg.obj
 0001:00035f18       __ehhandler$??0CTiffFileDlg@@QAE@PAVCWnd@@HH@Z 67db6f18 f   TiffFileDlg.obj
 0001:00035f40       __unwindfunclet$??0CViewDlg@@QAE@PAVCWnd@@PAVSapView@@@Z$0 67db6f40 f   ViewDlg.obj
 0001:00035f48       __unwindfunclet$??0CViewDlg@@QAE@PAVCWnd@@PAVSapView@@@Z$1 67db6f48 f   ViewDlg.obj
 0001:00035f56       __unwindfunclet$??0CViewDlg@@QAE@PAVCWnd@@PAVSapView@@@Z$2 67db6f56 f   ViewDlg.obj
 0001:00035f64       __unwindfunclet$??0CViewDlg@@QAE@PAVCWnd@@PAVSapView@@@Z$3 67db6f64 f   ViewDlg.obj
 0001:00035f72       __unwindfunclet$??0CViewDlg@@QAE@PAVCWnd@@PAVSapView@@@Z$4 67db6f72 f   ViewDlg.obj
 0001:00035f80       __unwindfunclet$??0CViewDlg@@QAE@PAVCWnd@@PAVSapView@@@Z$5 67db6f80 f   ViewDlg.obj
 0001:00035f92       __ehhandler$??0CViewDlg@@QAE@PAVCWnd@@PAVSapView@@@Z 67db6f92 f   ViewDlg.obj
 0001:00035fb0       ??__E?m_Methods@CColorConversionOptionsDlg@@0PAUSapColorConversionMethodDictionary@@A@@YAXXZ 67db6fb0 f   ColorConversionDlg.obj
 0001:00036140       ??__E?m_TiffCompressionTypes@CLoadSaveDlg@@1PAV?$CStringT@DV?$StrTraitMFC_DLL@DV?$ChTraitsCRT@D@ATL@@@@@ATL@@A@@YAXXZ 67db7140 f   LoadSaveDlg.obj
 0001:00036210       ??__Eclash@Inconsistent_definition_of_symbol__ATL_MIXED@@YAXXZ 67db7210 f   SapClassGui.obj
 0001:00036230       ??__Eclash@Define_the_symbol__ATL_MIXED@@YAXXZ 67db7230 f   SapClassGui.obj
 0001:00036250       ??__Eclash@Inconsistent_definition_of_symbol__ATL_MIXED@@YAXXZ 67db7250 f   mfcs100d:nolib.obj
 0001:00036260       ??__Eclash@Define_the_symbol__ATL_MIXED@@YAXXZ 67db7260 f   mfcs100d:nolib.obj
 0001:00036280       ??__Eclash@Inconsistent_definition_of_symbol__ATL_MIXED@@YAXXZ 67db7280 f   mfcs100d:stdafx.obj
 0001:00036290       ??__Eclash@Define_the_symbol__ATL_MIXED@@YAXXZ 67db7290 f   mfcs100d:stdafx.obj
 0001:000362b0       ??__Eg_Allocator@@YAXXZ    67db72b0 f   atlsd:Externs.obj
 0001:000362d0       ??__Eg_bInitialized@@YAXXZ 67db72d0 f   atlsd:Externs.obj
 0001:000362f0       ??__E?s_trace@CTrace@ATL@@2V12@A@@YAXXZ 67db72f0 f   atlsd:Externs.obj
 0001:00036320       ??__EatlTraceGeneral@ATL@@YAXXZ 67db7320 f   atlsd:atltrace.obj
 0001:00036340       ??__EatlTraceCOM@ATL@@YAXXZ 67db7340 f   atlsd:atltrace.obj
 0001:00036360       ??__EatlTraceQI@ATL@@YAXXZ 67db7360 f   atlsd:atltrace.obj
 0001:00036380       ??__EatlTraceRegistrar@ATL@@YAXXZ 67db7380 f   atlsd:atltrace.obj
 0001:000363a0       ??__EatlTraceRefcount@ATL@@YAXXZ 67db73a0 f   atlsd:atltrace.obj
 0001:000363c0       ??__EatlTraceWindowing@ATL@@YAXXZ 67db73c0 f   atlsd:atltrace.obj
 0001:000363e0       ??__EatlTraceControls@ATL@@YAXXZ 67db73e0 f   atlsd:atltrace.obj
 0001:00036400       ??__EatlTraceHosting@ATL@@YAXXZ 67db7400 f   atlsd:atltrace.obj
 0001:00036420       ??__EatlTraceDBClient@ATL@@YAXXZ 67db7420 f   atlsd:atltrace.obj
 0001:00036440       ??__EatlTraceDBProvider@ATL@@YAXXZ 67db7440 f   atlsd:atltrace.obj
 0001:00036460       ??__EatlTraceSnapin@ATL@@YAXXZ 67db7460 f   atlsd:atltrace.obj
 0001:00036480       ??__EatlTraceNotImpl@ATL@@YAXXZ 67db7480 f   atlsd:atltrace.obj
 0001:000364a0       ??__EatlTraceAllocation@ATL@@YAXXZ 67db74a0 f   atlsd:atltrace.obj
 0001:000364c0       ??__EatlTraceException@ATL@@YAXXZ 67db74c0 f   atlsd:atltrace.obj
 0001:000364e0       ??__EatlTraceTime@ATL@@YAXXZ 67db74e0 f   atlsd:atltrace.obj
 0001:00036500       ??__EatlTraceCache@ATL@@YAXXZ 67db7500 f   atlsd:atltrace.obj
 0001:00036520       ??__EatlTraceStencil@ATL@@YAXXZ 67db7520 f   atlsd:atltrace.obj
 0001:00036540       ??__EatlTraceString@ATL@@YAXXZ 67db7540 f   atlsd:atltrace.obj
 0001:00036560       ??__EatlTraceMap@ATL@@YAXXZ 67db7560 f   atlsd:atltrace.obj
 0001:00036580       ??__EatlTraceUtil@ATL@@YAXXZ 67db7580 f   atlsd:atltrace.obj
 0001:000365a0       ??__EatlTraceSecurity@ATL@@YAXXZ 67db75a0 f   atlsd:atltrace.obj
 0001:000365c0       ??__EatlTraceSync@ATL@@YAXXZ 67db75c0 f   atlsd:atltrace.obj
 0001:000365e0       ??__EatlTraceISAPI@ATL@@YAXXZ 67db75e0 f   atlsd:atltrace.obj
 0001:00036600       ??__EatlTraceUser@ATL@@YAXXZ 67db7600 f   atlsd:atltrace.obj
 0001:00036620       ??__EatlTraceUser2@ATL@@YAXXZ 67db7620 f   atlsd:atltrace.obj
 0001:00036640       ??__EatlTraceUser3@ATL@@YAXXZ 67db7640 f   atlsd:atltrace.obj
 0001:00036660       ??__EatlTraceUser4@ATL@@YAXXZ 67db7660 f   atlsd:atltrace.obj
 0001:00036680       ??__F?m_Methods@CColorConversionOptionsDlg@@0PAUSapColorConversionMethodDictionary@@A@@YAXXZ 67db7680 f   ColorConversionDlg.obj
 0001:000366a0       ??__F?m_TiffCompressionTypes@CLoadSaveDlg@@1PAV?$CStringT@DV?$StrTraitMFC_DLL@DV?$ChTraitsCRT@D@ATL@@@@@ATL@@A@@YAXXZ 67db76a0 f   LoadSaveDlg.obj
 0001:000366c0       ??__Fg_Allocator@@YAXXZ    67db76c0 f   atlsd:Externs.obj
 0001:000366e0       ??__F?s_trace@CTrace@ATL@@2V12@A@@YAXXZ 67db76e0 f   atlsd:Externs.obj
